
build/zynqmp/release/bl31/bl31.elf:     file format elf64-littleaarch64
build/zynqmp/release/bl31/bl31.elf
architecture: aarch64, flags 0x00000112:
EXEC_P, HAS_SYMS, D_PAGED
start address 0x00000000fffea000

Program Header:
    LOAD off    0x0000000000000000 vaddr 0x00000000fffe0000 paddr 0x00000000fffe0000 align 2**16
         filesz 0x0000000000016778 memsz 0x000000000001f000 flags rwx
   STACK off    0x0000000000000000 vaddr 0x0000000000000000 paddr 0x0000000000000000 align 2**4
         filesz 0x0000000000000000 memsz 0x0000000000000000 flags rw-
private flags = 0:

Sections:
Idx Name          Size      VMA               LMA               File off  Algn
  0 .text         00008000  00000000fffea000  00000000fffea000  0000a000  2**11
                  CONTENTS, ALLOC, LOAD, READONLY, CODE
  1 .rodata       00001000  00000000ffff2000  00000000ffff2000  00012000  2**3
                  CONTENTS, ALLOC, LOAD, DATA
  2 .data         00003778  00000000ffff3000  00000000ffff3000  00013000  2**3
                  CONTENTS, ALLOC, LOAD, DATA
  3 stacks        00001100  00000000ffff6780  00000000ffff6780  00016778  2**6
                  ALLOC
  4 .bss          00000d94  00000000ffff7880  00000000ffff7880  00016778  2**6
                  ALLOC
  5 xlat_table    00005000  00000000ffff9000  00000000ffff9000  00016778  2**12
                  ALLOC
  6 coherent_ram  00001000  00000000ffffe000  00000000ffffe000  00016778  2**12
                  ALLOC
  7 .comment      00000032  0000000000000000  0000000000000000  00016778  2**0
                  CONTENTS, READONLY
  8 .debug_frame  00000ce8  0000000000000000  0000000000000000  000167b0  2**3
                  CONTENTS, READONLY, DEBUGGING
SYMBOL TABLE:
00000000fffea000 l    d  .text	0000000000000000 .text
00000000ffff2000 l    d  .rodata	0000000000000000 .rodata
00000000ffff3000 l    d  .data	0000000000000000 .data
00000000ffff6780 l    d  stacks	0000000000000000 stacks
00000000ffff7880 l    d  .bss	0000000000000000 .bss
00000000ffff9000 l    d  xlat_table	0000000000000000 xlat_table
00000000ffffe000 l    d  coherent_ram	0000000000000000 coherent_ram
0000000000000000 l    d  .comment	0000000000000000 .comment
0000000000000000 l    d  .debug_frame	0000000000000000 .debug_frame
0000000000000000 l    df *ABS*	0000000000000000 ./build/zynqmp/release/bl31/bl31_entrypoint.o
00000000fffea06c l       .text	0000000000000000 do_primary_cold_boot
0000000000000000 l    df *ABS*	0000000000000000 cci.c
00000000ffff7880 l     O .bss	0000000000000008 cci_base
00000000ffff7888 l     O .bss	0000000000000008 cci_slave_if_map
0000000000000000 l    df *ABS*	0000000000000000 plat_psci_common.c
0000000000000000 l    df *ABS*	0000000000000000 ipi_mailbox_svc.c
0000000000000000 l    df *ABS*	0000000000000000 pm_ipi.c
00000000fffea364 l     F .text	0000000000000044 pm_ipi_send_common.isra.2
0000000000000000 l    df *ABS*	0000000000000000 bl31_zynqmp_setup.c
00000000fffea598 l     F .text	0000000000000048 bl31_set_default_config
00000000ffff7890 l     O .bss	0000000000000058 bl32_image_ep_info
00000000ffff78e8 l     O .bss	0000000000000058 bl33_image_ep_info
0000000000000000 l    df *ABS*	0000000000000000 plat_psci.c
00000000fffea7e0 l     F .text	0000000000000024 zynqmp_system_reset
00000000fffea804 l     F .text	0000000000000024 zynqmp_system_off
00000000fffea828 l     F .text	0000000000000048 zynqmp_pwr_domain_suspend_finish
00000000fffea870 l     F .text	0000000000000014 zynqmp_pwr_domain_on_finish
00000000fffea884 l     F .text	0000000000000060 zynqmp_pwr_domain_suspend
00000000fffea8e4 l     F .text	0000000000000038 zynqmp_pwr_domain_off
00000000fffea91c l     F .text	0000000000000054 zynqmp_pwr_domain_on
00000000ffff2088 l     O .rodata	00000000000000a0 zynqmp_psci_ops
0000000000000000 l    df *ABS*	0000000000000000 plat_zynqmp.c
0000000000000000 l    df *ABS*	0000000000000000 plat_startup.c
0000000000000000 l    df *ABS*	0000000000000000 plat_topology.c
00000000ffff218e l     O .rodata	0000000000000002 plat_power_domain_tree_desc
0000000000000000 l    df *ABS*	0000000000000000 sip_svc_setup.c
00000000fffeab18 l     F .text	0000000000000004 sip_svc_setup
00000000ffff2e28 l     O .rodata	0000000000000020 __svc_desc_sip_svc
0000000000000000 l    df *ABS*	0000000000000000 zynqmp_ipi.c
00000000ffff2198 l     O .rodata	0000000000000084 zynqmp_ipi_table
0000000000000000 l    df *ABS*	0000000000000000 pm_svc_main.c
00000000ffff7940 l     O .bss	0000000000000004 ipi_irq_flag
00000000ffff7944 l     O .bss	000000000000001c pm_ctx
00000000ffff7960 l     O .bss	0000000000000004 pm_up
0000000000000000 l    df *ABS*	0000000000000000 pm_api_sys.c
00000000ffff3000 l     O .data	0000000000000004 pm_shutdown_scope
0000000000000000 l    df *ABS*	0000000000000000 pm_api_pinctrl.c
00000000ffff3004 l     O .data	0000000000000028 __compound_literal.0
00000000ffff302c l     O .data	000000000000002a __compound_literal.1
00000000ffff3056 l     O .data	0000000000000004 __compound_literal.10
00000000ffff305a l     O .data	0000000000000020 __compound_literal.100
00000000ffff307a l     O .data	0000000000000020 __compound_literal.101
00000000ffff309a l     O .data	0000000000000020 __compound_literal.102
00000000ffff30ba l     O .data	0000000000000024 __compound_literal.103
00000000ffff30de l     O .data	0000000000000024 __compound_literal.104
00000000ffff3102 l     O .data	0000000000000024 __compound_literal.105
00000000ffff3126 l     O .data	0000000000000020 __compound_literal.106
00000000ffff3146 l     O .data	0000000000000030 __compound_literal.107
00000000ffff3176 l     O .data	0000000000000030 __compound_literal.108
00000000ffff31a6 l     O .data	000000000000001c __compound_literal.109
00000000ffff31c2 l     O .data	0000000000000006 __compound_literal.11
00000000ffff31c8 l     O .data	000000000000001c __compound_literal.110
00000000ffff31e4 l     O .data	000000000000001c __compound_literal.111
00000000ffff3200 l     O .data	000000000000001c __compound_literal.112
00000000ffff321c l     O .data	000000000000001c __compound_literal.113
00000000ffff3238 l     O .data	000000000000001c __compound_literal.114
00000000ffff3254 l     O .data	000000000000001c __compound_literal.115
00000000ffff3270 l     O .data	000000000000001c __compound_literal.116
00000000ffff328c l     O .data	000000000000001c __compound_literal.117
00000000ffff32a8 l     O .data	000000000000001c __compound_literal.118
00000000ffff32c4 l     O .data	000000000000001c __compound_literal.119
00000000ffff32e0 l     O .data	0000000000000004 __compound_literal.12
00000000ffff32e4 l     O .data	000000000000001c __compound_literal.120
00000000ffff3300 l     O .data	0000000000000030 __compound_literal.121
00000000ffff3330 l     O .data	000000000000001c __compound_literal.122
00000000ffff334c l     O .data	0000000000000030 __compound_literal.123
00000000ffff337c l     O .data	0000000000000020 __compound_literal.124
00000000ffff339c l     O .data	0000000000000020 __compound_literal.125
00000000ffff33bc l     O .data	0000000000000020 __compound_literal.126
00000000ffff33dc l     O .data	0000000000000020 __compound_literal.127
00000000ffff33fc l     O .data	0000000000000024 __compound_literal.128
00000000ffff3420 l     O .data	0000000000000022 __compound_literal.129
00000000ffff3442 l     O .data	0000000000000004 __compound_literal.13
00000000ffff3446 l     O .data	0000000000000022 __compound_literal.130
00000000ffff3468 l     O .data	0000000000000022 __compound_literal.131
00000000ffff348a l     O .data	0000000000000024 __compound_literal.132
00000000ffff34ae l     O .data	0000000000000024 __compound_literal.133
00000000ffff34d2 l     O .data	000000000000001c __compound_literal.134
00000000ffff34ee l     O .data	0000000000000004 __compound_literal.14
00000000ffff34f2 l     O .data	0000000000000004 __compound_literal.15
00000000ffff34f6 l     O .data	0000000000000004 __compound_literal.16
00000000ffff34fa l     O .data	000000000000000e __compound_literal.17
00000000ffff3508 l     O .data	000000000000000e __compound_literal.18
00000000ffff3516 l     O .data	0000000000000026 __compound_literal.19
00000000ffff353c l     O .data	0000000000000004 __compound_literal.2
00000000ffff3540 l     O .data	0000000000000026 __compound_literal.20
00000000ffff3566 l     O .data	0000000000000044 __compound_literal.21
00000000ffff35aa l     O .data	0000000000000008 __compound_literal.22
00000000ffff35b2 l     O .data	0000000000000008 __compound_literal.23
00000000ffff35ba l     O .data	0000000000000008 __compound_literal.24
00000000ffff35c2 l     O .data	0000000000000022 __compound_literal.25
00000000ffff35e4 l     O .data	0000000000000006 __compound_literal.26
00000000ffff35ea l     O .data	0000000000000006 __compound_literal.27
00000000ffff35f0 l     O .data	0000000000000006 __compound_literal.28
00000000ffff35f6 l     O .data	0000000000000004 __compound_literal.29
00000000ffff35fa l     O .data	0000000000000004 __compound_literal.3
00000000ffff35fe l     O .data	0000000000000006 __compound_literal.30
00000000ffff3604 l     O .data	0000000000000006 __compound_literal.31
00000000ffff360a l     O .data	0000000000000006 __compound_literal.32
00000000ffff3610 l     O .data	0000000000000014 __compound_literal.33
00000000ffff3624 l     O .data	0000000000000014 __compound_literal.34
00000000ffff3638 l     O .data	0000000000000014 __compound_literal.35
00000000ffff364c l     O .data	0000000000000014 __compound_literal.36
00000000ffff3660 l     O .data	0000000000000014 __compound_literal.37
00000000ffff3674 l     O .data	0000000000000014 __compound_literal.38
00000000ffff3688 l     O .data	0000000000000014 __compound_literal.39
00000000ffff369c l     O .data	0000000000000004 __compound_literal.4
00000000ffff36a0 l     O .data	0000000000000014 __compound_literal.40
00000000ffff36b4 l     O .data	0000000000000028 __compound_literal.41
00000000ffff36dc l     O .data	0000000000000028 __compound_literal.42
00000000ffff3704 l     O .data	0000000000000004 __compound_literal.43
00000000ffff3708 l     O .data	0000000000000004 __compound_literal.44
00000000ffff370c l     O .data	000000000000001c __compound_literal.45
00000000ffff3728 l     O .data	000000000000001c __compound_literal.46
00000000ffff3744 l     O .data	000000000000001c __compound_literal.47
00000000ffff3760 l     O .data	000000000000001c __compound_literal.48
00000000ffff377c l     O .data	000000000000001a __compound_literal.49
00000000ffff3796 l     O .data	0000000000000004 __compound_literal.5
00000000ffff379a l     O .data	0000000000000012 __compound_literal.50
00000000ffff37ac l     O .data	000000000000001a __compound_literal.51
00000000ffff37c6 l     O .data	000000000000000a __compound_literal.52
00000000ffff37d0 l     O .data	000000000000000e __compound_literal.53
00000000ffff37de l     O .data	0000000000000008 __compound_literal.54
00000000ffff37e6 l     O .data	0000000000000008 __compound_literal.55
00000000ffff37ee l     O .data	0000000000000004 __compound_literal.56
00000000ffff37f2 l     O .data	000000000000001c __compound_literal.57
00000000ffff380e l     O .data	000000000000001c __compound_literal.58
00000000ffff382a l     O .data	000000000000001c __compound_literal.59
00000000ffff3846 l     O .data	0000000000000008 __compound_literal.6
00000000ffff384e l     O .data	000000000000001c __compound_literal.60
00000000ffff386a l     O .data	000000000000001c __compound_literal.61
00000000ffff3886 l     O .data	000000000000001c __compound_literal.62
00000000ffff38a2 l     O .data	000000000000001c __compound_literal.63
00000000ffff38be l     O .data	000000000000001c __compound_literal.64
00000000ffff38da l     O .data	000000000000001c __compound_literal.65
00000000ffff38f6 l     O .data	000000000000001c __compound_literal.66
00000000ffff3912 l     O .data	000000000000001c __compound_literal.67
00000000ffff392e l     O .data	000000000000001c __compound_literal.68
00000000ffff394a l     O .data	000000000000001c __compound_literal.69
00000000ffff3966 l     O .data	000000000000009e __compound_literal.7
00000000ffff3a04 l     O .data	0000000000000020 __compound_literal.70
00000000ffff3a24 l     O .data	0000000000000020 __compound_literal.71
00000000ffff3a44 l     O .data	0000000000000020 __compound_literal.72
00000000ffff3a64 l     O .data	0000000000000020 __compound_literal.73
00000000ffff3a84 l     O .data	0000000000000020 __compound_literal.74
00000000ffff3aa4 l     O .data	0000000000000020 __compound_literal.75
00000000ffff3ac4 l     O .data	0000000000000020 __compound_literal.76
00000000ffff3ae4 l     O .data	0000000000000020 __compound_literal.77
00000000ffff3b04 l     O .data	0000000000000030 __compound_literal.78
00000000ffff3b34 l     O .data	0000000000000030 __compound_literal.79
00000000ffff3b64 l     O .data	0000000000000028 __compound_literal.8
00000000ffff3b8c l     O .data	000000000000001c __compound_literal.80
00000000ffff3ba8 l     O .data	000000000000001c __compound_literal.81
00000000ffff3bc4 l     O .data	000000000000001c __compound_literal.82
00000000ffff3be0 l     O .data	000000000000001c __compound_literal.83
00000000ffff3bfc l     O .data	000000000000001c __compound_literal.84
00000000ffff3c18 l     O .data	000000000000001c __compound_literal.85
00000000ffff3c34 l     O .data	000000000000001c __compound_literal.86
00000000ffff3c50 l     O .data	000000000000001c __compound_literal.87
00000000ffff3c6c l     O .data	000000000000001c __compound_literal.88
00000000ffff3c88 l     O .data	000000000000001c __compound_literal.89
00000000ffff3ca4 l     O .data	000000000000002a __compound_literal.9
00000000ffff3cce l     O .data	000000000000001c __compound_literal.90
00000000ffff3cea l     O .data	000000000000001c __compound_literal.91
00000000ffff3d06 l     O .data	000000000000001c __compound_literal.92
00000000ffff3d22 l     O .data	000000000000001c __compound_literal.93
00000000ffff3d3e l     O .data	000000000000001c __compound_literal.94
00000000ffff3d5a l     O .data	0000000000000030 __compound_literal.95
00000000ffff3d8a l     O .data	0000000000000020 __compound_literal.96
00000000ffff3daa l     O .data	0000000000000034 __compound_literal.97
00000000ffff3dde l     O .data	0000000000000024 __compound_literal.98
00000000ffff3e02 l     O .data	0000000000000026 __compound_literal.99
00000000ffff3e28 l     O .data	0000000000000720 pinctrl_functions
00000000ffff2290 l     O .rodata	0000000000000270 zynqmp_pin_groups
0000000000000000 l    df *ABS*	0000000000000000 pm_api_ioctl.c
00000000fffec1dc l     F .text	0000000000000090 pm_ioctl_sd_dll_reset
0000000000000000 l    df *ABS*	0000000000000000 pm_api_clock.c
00000000fffec710 l     F .text	0000000000000034 pm_clock_valid
00000000ffff4e00 l     O .data	00000000000011a8 clocks
00000000ffff4548 l     O .data	0000000000000008 __compound_literal.0
00000000ffff4550 l     O .data	0000000000000024 __compound_literal.1
00000000ffff4574 l     O .data	0000000000000024 __compound_literal.10
00000000ffff4598 l     O .data	000000000000000c __compound_literal.100
00000000ffff45a4 l     O .data	0000000000000008 __compound_literal.101
00000000ffff45ac l     O .data	0000000000000008 __compound_literal.102
00000000ffff45b4 l     O .data	0000000000000014 __compound_literal.103
00000000ffff45c8 l     O .data	000000000000000c __compound_literal.104
00000000ffff45d4 l     O .data	000000000000000c __compound_literal.105
00000000ffff45e0 l     O .data	000000000000000c __compound_literal.106
00000000ffff45ec l     O .data	000000000000000c __compound_literal.107
00000000ffff45f8 l     O .data	000000000000000c __compound_literal.11
00000000ffff4604 l     O .data	0000000000000008 __compound_literal.12
00000000ffff460c l     O .data	0000000000000024 __compound_literal.13
00000000ffff4630 l     O .data	0000000000000008 __compound_literal.14
00000000ffff4638 l     O .data	000000000000000c __compound_literal.15
00000000ffff4644 l     O .data	0000000000000024 __compound_literal.16
00000000ffff4668 l     O .data	000000000000000c __compound_literal.17
00000000ffff4674 l     O .data	0000000000000008 __compound_literal.18
00000000ffff467c l     O .data	0000000000000024 __compound_literal.19
00000000ffff46a0 l     O .data	0000000000000008 __compound_literal.2
00000000ffff46a8 l     O .data	0000000000000008 __compound_literal.20
00000000ffff46b0 l     O .data	000000000000000c __compound_literal.21
00000000ffff46bc l     O .data	0000000000000024 __compound_literal.22
00000000ffff46e0 l     O .data	000000000000000c __compound_literal.23
00000000ffff46ec l     O .data	0000000000000008 __compound_literal.24
00000000ffff46f4 l     O .data	0000000000000024 __compound_literal.25
00000000ffff4718 l     O .data	0000000000000008 __compound_literal.26
00000000ffff4720 l     O .data	000000000000000c __compound_literal.27
00000000ffff472c l     O .data	0000000000000024 __compound_literal.28
00000000ffff4750 l     O .data	000000000000000c __compound_literal.29
00000000ffff475c l     O .data	000000000000000c __compound_literal.3
00000000ffff4768 l     O .data	0000000000000014 __compound_literal.30
00000000ffff477c l     O .data	0000000000000008 __compound_literal.31
00000000ffff4784 l     O .data	0000000000000014 __compound_literal.32
00000000ffff4798 l     O .data	0000000000000014 __compound_literal.33
00000000ffff47ac l     O .data	0000000000000014 __compound_literal.34
00000000ffff47c0 l     O .data	0000000000000014 __compound_literal.35
00000000ffff47d4 l     O .data	0000000000000014 __compound_literal.36
00000000ffff47e8 l     O .data	0000000000000014 __compound_literal.37
00000000ffff47fc l     O .data	0000000000000014 __compound_literal.38
00000000ffff4810 l     O .data	000000000000000c __compound_literal.39
00000000ffff481c l     O .data	0000000000000024 __compound_literal.4
00000000ffff4840 l     O .data	0000000000000014 __compound_literal.40
00000000ffff4854 l     O .data	0000000000000014 __compound_literal.41
00000000ffff4868 l     O .data	0000000000000014 __compound_literal.42
00000000ffff487c l     O .data	0000000000000014 __compound_literal.43
00000000ffff4890 l     O .data	0000000000000014 __compound_literal.44
00000000ffff48a4 l     O .data	0000000000000014 __compound_literal.45
00000000ffff48b8 l     O .data	0000000000000014 __compound_literal.46
00000000ffff48cc l     O .data	0000000000000014 __compound_literal.47
00000000ffff48e0 l     O .data	0000000000000014 __compound_literal.48
00000000ffff48f4 l     O .data	0000000000000014 __compound_literal.49
00000000ffff4908 l     O .data	000000000000000c __compound_literal.5
00000000ffff4914 l     O .data	0000000000000014 __compound_literal.50
00000000ffff4928 l     O .data	0000000000000014 __compound_literal.51
00000000ffff493c l     O .data	000000000000000c __compound_literal.52
00000000ffff4948 l     O .data	000000000000000c __compound_literal.53
00000000ffff4954 l     O .data	000000000000000c __compound_literal.54
00000000ffff4960 l     O .data	000000000000000c __compound_literal.55
00000000ffff496c l     O .data	0000000000000014 __compound_literal.56
00000000ffff4980 l     O .data	0000000000000014 __compound_literal.57
00000000ffff4994 l     O .data	0000000000000014 __compound_literal.58
00000000ffff49a8 l     O .data	0000000000000014 __compound_literal.59
00000000ffff49bc l     O .data	0000000000000008 __compound_literal.6
00000000ffff49c4 l     O .data	0000000000000014 __compound_literal.60
00000000ffff49d8 l     O .data	0000000000000014 __compound_literal.61
00000000ffff49ec l     O .data	0000000000000014 __compound_literal.62
00000000ffff4a00 l     O .data	0000000000000014 __compound_literal.63
00000000ffff4a14 l     O .data	0000000000000014 __compound_literal.64
00000000ffff4a28 l     O .data	0000000000000014 __compound_literal.65
00000000ffff4a3c l     O .data	0000000000000014 __compound_literal.66
00000000ffff4a50 l     O .data	0000000000000014 __compound_literal.67
00000000ffff4a64 l     O .data	0000000000000014 __compound_literal.68
00000000ffff4a78 l     O .data	0000000000000014 __compound_literal.69
00000000ffff4a8c l     O .data	0000000000000024 __compound_literal.7
00000000ffff4ab0 l     O .data	000000000000000c __compound_literal.70
00000000ffff4abc l     O .data	0000000000000014 __compound_literal.71
00000000ffff4ad0 l     O .data	0000000000000014 __compound_literal.72
00000000ffff4ae4 l     O .data	0000000000000014 __compound_literal.73
00000000ffff4af8 l     O .data	0000000000000014 __compound_literal.74
00000000ffff4b0c l     O .data	0000000000000014 __compound_literal.75
00000000ffff4b20 l     O .data	0000000000000014 __compound_literal.76
00000000ffff4b34 l     O .data	0000000000000014 __compound_literal.77
00000000ffff4b48 l     O .data	0000000000000014 __compound_literal.78
00000000ffff4b5c l     O .data	0000000000000014 __compound_literal.79
00000000ffff4b70 l     O .data	0000000000000008 __compound_literal.8
00000000ffff4b78 l     O .data	0000000000000024 __compound_literal.80
00000000ffff4b9c l     O .data	0000000000000014 __compound_literal.81
00000000ffff4bb0 l     O .data	0000000000000014 __compound_literal.82
00000000ffff4bc4 l     O .data	0000000000000014 __compound_literal.83
00000000ffff4bd8 l     O .data	0000000000000014 __compound_literal.84
00000000ffff4bec l     O .data	0000000000000014 __compound_literal.85
00000000ffff4c00 l     O .data	0000000000000008 __compound_literal.86
00000000ffff4c08 l     O .data	0000000000000008 __compound_literal.87
00000000ffff4c10 l     O .data	0000000000000008 __compound_literal.88
00000000ffff4c18 l     O .data	0000000000000008 __compound_literal.89
00000000ffff4c20 l     O .data	000000000000000c __compound_literal.9
00000000ffff4c2c l     O .data	0000000000000008 __compound_literal.90
00000000ffff4c34 l     O .data	0000000000000008 __compound_literal.91
00000000ffff4c3c l     O .data	0000000000000008 __compound_literal.92
00000000ffff4c44 l     O .data	0000000000000008 __compound_literal.93
00000000ffff4c4c l     O .data	0000000000000008 __compound_literal.94
00000000ffff4c54 l     O .data	0000000000000008 __compound_literal.95
00000000ffff4c5c l     O .data	0000000000000008 __compound_literal.96
00000000ffff4c64 l     O .data	0000000000000008 __compound_literal.97
00000000ffff4c6c l     O .data	0000000000000008 __compound_literal.98
00000000ffff4c74 l     O .data	0000000000000008 __compound_literal.99
00000000ffff4c7c l     O .data	0000000000000008 acpu_full_nodes
00000000ffff4c84 l     O .data	0000000000000010 acpu_half_nodes
00000000ffff4c94 l     O .data	0000000000000010 acpu_nodes
00000000ffff4ca4 l     O .data	0000000000000008 can0_mio_nodes
00000000ffff4cac l     O .data	0000000000000008 can0_nodes
00000000ffff4cb4 l     O .data	0000000000000008 can1_mio_nodes
00000000ffff4cbc l     O .data	0000000000000008 can1_nodes
00000000ffff4cc4 l     O .data	000000000000013c can_mio_parents
00000000ffff664a l     O .data	0000000000000008 generic_pll_system_nodes
00000000ffff65ba l     O .data	0000000000000008 generic_domain_crossing_nodes
00000000ffff6718 l     O .data	0000000000000008 rpll_to_fpd_nodes
00000000ffff65e2 l     O .data	0000000000000018 generic_mux_div_gate_nodes
00000000ffff65fa l     O .data	0000000000000010 generic_mux_div_nodes
00000000ffff5fc8 l     O .data	0000000000000020 dp_audio_video_ref_nodes
00000000ffff65c2 l     O .data	0000000000000020 generic_mux_div_div_gate_nodes
00000000ffff5fb0 l     O .data	0000000000000010 ddr_nodes
00000000ffff6652 l     O .data	0000000000000008 gpu_pp0_nodes
00000000ffff665a l     O .data	0000000000000008 gpu_pp1_nodes
00000000ffff660a l     O .data	0000000000000018 generic_mux_div_unused_gate_nodes
00000000ffff6738 l     O .data	0000000000000020 usb_nodes
00000000ffff5fa8 l     O .data	0000000000000008 cpu_r5_core_nodes
00000000ffff65aa l     O .data	0000000000000008 gem_tsu_nodes
00000000ffff65b2 l     O .data	0000000000000008 gem_tx_nodes
00000000ffff65a2 l     O .data	0000000000000008 gem_rx_nodes
00000000ffff5fc0 l     O .data	0000000000000008 dll_ref_nodes
00000000ffff6720 l     O .data	0000000000000018 timestamp_ref_nodes
00000000ffff666a l     O .data	0000000000000020 pl_nodes
00000000ffff6758 l     O .data	0000000000000008 wdt_nodes
00000000ffff6632 l     O .data	0000000000000008 generic_pll_nodes
00000000ffff6642 l     O .data	0000000000000008 generic_pll_pre_src_nodes
00000000ffff6622 l     O .data	0000000000000008 generic_pll_half_nodes
00000000ffff662a l     O .data	0000000000000008 generic_pll_int_nodes
00000000ffff663a l     O .data	0000000000000008 generic_pll_post_src_nodes
00000000ffff6662 l     O .data	0000000000000008 ignore_unused_pll_nodes
00000000ffff656a l     O .data	0000000000000008 gem0_ref_nodes
00000000ffff6572 l     O .data	0000000000000008 gem1_ref_nodes
00000000ffff657a l     O .data	0000000000000008 gem2_ref_nodes
00000000ffff6582 l     O .data	0000000000000008 gem3_ref_nodes
00000000ffff658a l     O .data	0000000000000018 gem_ref_ungated_nodes
00000000ffff5fe8 l     O .data	0000000000000582 ext_clocks
00000000ffff668c l     O .data	000000000000008c pm_plls
00000000ffff2578 l     O .rodata	0000000000000058 pm_clk_invalid_list
0000000000000000 l    df *ABS*	0000000000000000 pm_client.c
00000000ffff7964 l     O .bss	0000000000000004 suspend_mode
00000000ffff2738 l     O .rodata	0000000000000040 pm_procs_all
00000000ffff25e0 l     O .rodata	0000000000000154 irq_node_map
0000000000000000 l    df *ABS*	0000000000000000 bl31_main.c
00000000ffff7968 l     O .bss	0000000000000008 bl32_init
00000000ffff6768 l     O .data	0000000000000004 next_image_type
00000000ffff27d8 l     O .rodata	0000000000000010 psci_args.2810
0000000000000000 l    df *ABS*	0000000000000000 interrupt_mgmt.c
00000000ffff7970 l     O .bss	0000000000000048 intr_type_descs
0000000000000000 l    df *ABS*	0000000000000000 bl31_context_mgmt.c
0000000000000000 l    df *ABS*	0000000000000000 runtime_svc.c
0000000000000000 l    df *ABS*	0000000000000000 arm_arch_svc_setup.c
00000000fffed2bc l     F .text	0000000000000074 arm_arch_svc_smc_handler
00000000ffff2e48 l     O .rodata	0000000000000020 __svc_desc_arm_arch_svc
0000000000000000 l    df *ABS*	0000000000000000 std_svc_setup.c
00000000fffed330 l     F .text	0000000000000024 std_svc_setup
00000000fffed354 l     F .text	00000000000000a4 std_svc_smc_handler
00000000ffff2e68 l     O .rodata	0000000000000020 __svc_desc_std_svc
0000000000000000 l    df *ABS*	0000000000000000 context_mgmt.c
0000000000000000 l    df *ABS*	0000000000000000 psci_off.c
0000000000000000 l    df *ABS*	0000000000000000 psci_on.c
0000000000000000 l    df *ABS*	0000000000000000 psci_suspend.c
0000000000000000 l    df *ABS*	0000000000000000 psci_common.c
00000000ffff79b8 l     O .bss	0000000000000004 psci_req_local_pwr_states
0000000000000000 l    df *ABS*	0000000000000000 psci_main.c
0000000000000000 l    df *ABS*	0000000000000000 psci_setup.c
00000000ffff79c0 l     O .bss	00000000000008c0 psci_ns_context
0000000000000000 l    df *ABS*	0000000000000000 psci_system_off.c
0000000000000000 l    df *ABS*	0000000000000000 psci_mem_protect.c
0000000000000000 l    df *ABS*	0000000000000000 bakery_lock_coherent.c
0000000000000000 l    df *ABS*	0000000000000000 spe.c
00000000fffeecd8 l     F .text	0000000000000034 spe_drain_buffers_hook
0000000000000000 l    df *ABS*	0000000000000000 bl_common.c
0000000000000000 l    df *ABS*	0000000000000000 tf_log.c
00000000ffff676c l     O .data	0000000000000004 max_log_level
0000000000000000 l    df *ABS*	0000000000000000 plat_bl_common.c
0000000000000000 l    df *ABS*	0000000000000000 plat_log_common.c
00000000ffff28d0 l     O .rodata	0000000000000028 plat_prefix_str
0000000000000000 l    df *ABS*	0000000000000000 plat_common.c
0000000000000000 l    df *ABS*	0000000000000000 xlat_tables_common.c
00000000fffeee84 l     F .text	00000000000001f0 init_xlation_table_inner
00000000ffff9000 l     O xlat_table	0000000000005000 xlat_tables
00000000ffff8280 l     O .bss	0000000000000008 ap1_mask
00000000ffff8288 l     O .bss	0000000000000008 execute_never_mask
00000000ffff8290 l     O .bss	0000000000000100 mmap
00000000ffff8390 l     O .bss	0000000000000004 next_xlat
00000000ffff8398 l     O .bss	0000000000000008 xlat_max_pa
00000000ffff83a0 l     O .bss	0000000000000008 xlat_max_va
0000000000000000 l    df *ABS*	0000000000000000 xlat_tables.c
00000000ffff83c0 l     O .bss	0000000000000020 base_xlation_table
00000000ffff83e0 l     O .bss	0000000000000008 tcr_ps_bits
0000000000000000 l    df *ABS*	0000000000000000 delay_timer.c
00000000ffff83e8 l     O .bss	0000000000000008 timer_ops
0000000000000000 l    df *ABS*	0000000000000000 generic_delay_timer.c
00000000fffef3d4 l     F .text	000000000000000c get_timer_value
00000000ffff83f0 l     O .bss	0000000000000010 ops
0000000000000000 l    df *ABS*	0000000000000000 gic_common.c
0000000000000000 l    df *ABS*	0000000000000000 gicv2_main.c
00000000ffff8400 l     O .bss	0000000000000008 driver_data
0000000000000000 l    df *ABS*	0000000000000000 gicv2_helpers.c
0000000000000000 l    df *ABS*	0000000000000000 arm_cci.c
00000000ffff2988 l     O .rodata	0000000000000008 cci_map
0000000000000000 l    df *ABS*	0000000000000000 arm_common.c
0000000000000000 l    df *ABS*	0000000000000000 arm_gicv2.c
00000000ffff8408 l     O .bss	0000000000000010 target_mask_array
00000000ffff2990 l     O .rodata	0000000000000030 arm_gic_data
00000000ffff29c0 l     O .rodata	0000000000000024 arm_interrupt_props
0000000000000000 l    df *ABS*	0000000000000000 plat_gicv2.c
0000000000000000 l    df *ABS*	0000000000000000 ipi.c
00000000ffff8418 l     O .bss	0000000000000008 ipi_table
00000000ffff8420 l     O .bss	0000000000000004 ipi_total
0000000000000000 l    df *ABS*	0000000000000000 zynqmp_common.c
00000000fffefb50 l     F .text	0000000000000028 zynqmp_get_silicon_ver
00000000ffff8424 l     O .bss	0000000000000004 ver.2221
00000000ffff2b58 l     O .rodata	00000000000002b8 zynqmp_devices
0000000000000000 l    df *ABS*	0000000000000000 ./build/zynqmp/release/bl31/aem_generic.o
0000000000000008 l       *ABS*	0000000000000000 CPU_MIDR_SIZE
0000000000000008 l       *ABS*	0000000000000000 CPU_EXTRA1_FUNC_SIZE
0000000000000008 l       *ABS*	0000000000000000 CPU_EXTRA2_FUNC_SIZE
0000000000000008 l       *ABS*	0000000000000000 CPU_RESET_FUNC_SIZE
0000000000000010 l       *ABS*	0000000000000000 CPU_PWR_DWN_OPS_SIZE
0000000000000000 l       *ABS*	0000000000000000 CPU_ERRATA_FUNC_SIZE
0000000000000000 l       *ABS*	0000000000000000 CPU_ERRATA_LOCK_SIZE
0000000000000000 l       *ABS*	0000000000000000 CPU_ERRATA_PRINTED_SIZE
0000000000000000 l       *ABS*	0000000000000000 CPU_REG_DUMP_SIZE
0000000000000000 l       *ABS*	0000000000000000 CPU_MIDR
0000000000000008 l       *ABS*	0000000000000000 CPU_RESET_FUNC
0000000000000010 l       *ABS*	0000000000000000 CPU_EXTRA1_FUNC
0000000000000018 l       *ABS*	0000000000000000 CPU_EXTRA2_FUNC
0000000000000020 l       *ABS*	0000000000000000 CPU_PWR_DWN_OPS
0000000000000030 l       *ABS*	0000000000000000 CPU_ERRATA_FUNC
0000000000000030 l       *ABS*	0000000000000000 CPU_ERRATA_LOCK
0000000000000030 l       *ABS*	0000000000000000 CPU_ERRATA_PRINTED
0000000000000030 l       *ABS*	0000000000000000 CPU_REG_DUMP
0000000000000030 l       *ABS*	0000000000000000 CPU_OPS_SIZE
00000000fffefdb0 l     F .text	0000000000000018 aem_generic_core_pwr_dwn
00000000fffefdc8 l     F .text	0000000000000018 aem_generic_cluster_pwr_dwn
0000000000000000 l    df *ABS*	0000000000000000 ./build/zynqmp/release/bl31/cortex_a53.o
0000000000000008 l       *ABS*	0000000000000000 CPU_MIDR_SIZE
0000000000000008 l       *ABS*	0000000000000000 CPU_EXTRA1_FUNC_SIZE
0000000000000008 l       *ABS*	0000000000000000 CPU_EXTRA2_FUNC_SIZE
0000000000000008 l       *ABS*	0000000000000000 CPU_RESET_FUNC_SIZE
0000000000000010 l       *ABS*	0000000000000000 CPU_PWR_DWN_OPS_SIZE
0000000000000000 l       *ABS*	0000000000000000 CPU_ERRATA_FUNC_SIZE
0000000000000000 l       *ABS*	0000000000000000 CPU_ERRATA_LOCK_SIZE
0000000000000000 l       *ABS*	0000000000000000 CPU_ERRATA_PRINTED_SIZE
0000000000000000 l       *ABS*	0000000000000000 CPU_REG_DUMP_SIZE
0000000000000000 l       *ABS*	0000000000000000 CPU_MIDR
0000000000000008 l       *ABS*	0000000000000000 CPU_RESET_FUNC
0000000000000010 l       *ABS*	0000000000000000 CPU_EXTRA1_FUNC
0000000000000018 l       *ABS*	0000000000000000 CPU_EXTRA2_FUNC
0000000000000020 l       *ABS*	0000000000000000 CPU_PWR_DWN_OPS
0000000000000030 l       *ABS*	0000000000000000 CPU_ERRATA_FUNC
0000000000000030 l       *ABS*	0000000000000000 CPU_ERRATA_LOCK
0000000000000030 l       *ABS*	0000000000000000 CPU_ERRATA_PRINTED
0000000000000030 l       *ABS*	0000000000000000 CPU_REG_DUMP
0000000000000030 l       *ABS*	0000000000000000 CPU_OPS_SIZE
00000000fffefde0 l     F .text	0000000000000014 cortex_a53_disable_dcache
00000000fffefdf4 l     F .text	0000000000000018 cortex_a53_disable_smp
00000000fffefe0c l     F .text	000000000000001c errata_a53_855873_wa
00000000fffefe28 l     F .text	0000000000000008 check_errata_855873
00000000fffefe30 l     F .text	0000000000000028 cortex_a53_reset_func
00000000fffefe58 l     F .text	0000000000000018 cortex_a53_core_pwr_dwn
00000000fffefe70 l     F .text	0000000000000024 cortex_a53_cluster_pwr_dwn
0000000000000000 l    df *ABS*	0000000000000000 ./build/zynqmp/release/bl31/crash_reporting.o
0000000000000000 l    df *ABS*	0000000000000000 ./build/zynqmp/release/bl31/ea_delegate.o
00000000fffefef8 l     F .text	0000000000000068 ea_proceed
00000000fffefef0 l     F .text	0000000000000004 delegate_sync_ea
00000000fffefef4 l     F .text	0000000000000004 delegate_async_ea
0000000000000000 l    df *ABS*	0000000000000000 ./build/zynqmp/release/bl31/runtime_exceptions.o
00000000fffeff60 l       .text	0000000000000000 smc_handler32
00000000fffeff64 l       .text	0000000000000000 smc_handler64
00000000ffff14d8 l       .text	0000000000000000 interrupt_exit_irq_aarch64
00000000ffff1558 l       .text	0000000000000000 interrupt_exit_fiq_aarch64
00000000ffff16d8 l       .text	0000000000000000 interrupt_exit_irq_aarch32
00000000ffff1758 l       .text	0000000000000000 interrupt_exit_fiq_aarch32
00000000fffeff60 l     F .text	00000000000000b8 smc_handler
00000000ffff0004 l       .text	0000000000000000 smc_prohibited
00000000fffefff8 l       .text	0000000000000000 smc_unknown
00000000ffff0010 l       .text	0000000000000000 rt_svc_fw_critical_error
0000000000000000 l    df *ABS*	0000000000000000 ./build/zynqmp/release/bl31/platform_mp_stack.o
00000000ffff6780 l       stacks	0000000000000000 platform_normal_stacks
0000000000000006 l       *ABS*	0000000000000000 TZ_COUNT
0000000000000000 l    df *ABS*	0000000000000000 ./build/zynqmp/release/bl31/cpu_data.o
0000000000000000 l    df *ABS*	0000000000000000 ./build/zynqmp/release/bl31/cpu_helpers.o
0000000000000008 l       *ABS*	0000000000000000 CPU_MIDR_SIZE
0000000000000008 l       *ABS*	0000000000000000 CPU_EXTRA1_FUNC_SIZE
0000000000000008 l       *ABS*	0000000000000000 CPU_EXTRA2_FUNC_SIZE
0000000000000008 l       *ABS*	0000000000000000 CPU_RESET_FUNC_SIZE
0000000000000010 l       *ABS*	0000000000000000 CPU_PWR_DWN_OPS_SIZE
0000000000000000 l       *ABS*	0000000000000000 CPU_ERRATA_FUNC_SIZE
0000000000000000 l       *ABS*	0000000000000000 CPU_ERRATA_LOCK_SIZE
0000000000000000 l       *ABS*	0000000000000000 CPU_ERRATA_PRINTED_SIZE
0000000000000000 l       *ABS*	0000000000000000 CPU_REG_DUMP_SIZE
0000000000000000 l       *ABS*	0000000000000000 CPU_MIDR
0000000000000008 l       *ABS*	0000000000000000 CPU_RESET_FUNC
0000000000000010 l       *ABS*	0000000000000000 CPU_EXTRA1_FUNC
0000000000000018 l       *ABS*	0000000000000000 CPU_EXTRA2_FUNC
0000000000000020 l       *ABS*	0000000000000000 CPU_PWR_DWN_OPS
0000000000000030 l       *ABS*	0000000000000000 CPU_ERRATA_FUNC
0000000000000030 l       *ABS*	0000000000000000 CPU_ERRATA_LOCK
0000000000000030 l       *ABS*	0000000000000000 CPU_ERRATA_PRINTED
0000000000000030 l       *ABS*	0000000000000000 CPU_REG_DUMP
0000000000000030 l       *ABS*	0000000000000000 CPU_OPS_SIZE
00000000ffff0108 l       .text	0000000000000000 error_exit
0000000000000000 l    df *ABS*	0000000000000000 ./build/zynqmp/release/bl31/spinlock.o
00000000ffff0138 l       .text	0000000000000000 l1
00000000ffff013c l       .text	0000000000000000 l2
0000000000000000 l    df *ABS*	0000000000000000 ./build/zynqmp/release/bl31/psci_helpers.o
0000000000000000 l    df *ABS*	0000000000000000 ./build/zynqmp/release/bl31/context.o
0000000000000000 l    df *ABS*	0000000000000000 ./build/zynqmp/release/bl31/debug.o
00000000ffff2e10 l       .rodata	0000000000000000 panic_msg
00000000ffff035c l       .text	0000000000000000 panic_common
00000000ffff0380 l       .text	0000000000000000 _panic_handler
0000000000000000 l    df *ABS*	0000000000000000 ./build/zynqmp/release/bl31/cache_helpers.o
00000000ffff03bc l       .text	0000000000000000 exit_loop_civac
00000000ffff03a8 l       .text	0000000000000000 loop_civac
00000000ffff03f4 l       .text	0000000000000000 exit_loop_cvac
00000000ffff03e0 l       .text	0000000000000000 loop_cvac
00000000ffff042c l       .text	0000000000000000 exit_loop_ivac
00000000ffff0418 l       .text	0000000000000000 loop_ivac
00000000ffff0430 l     F .text	000000000000007c do_dcsw_op
00000000ffff04a8 l       .text	0000000000000000 exit
00000000ffff04ac l       .text	0000000000000000 dcsw_loop_table
00000000ffff0444 l       .text	0000000000000000 loop1
00000000ffff0490 l       .text	0000000000000000 level_done
00000000ffff04ac l       .text	0000000000000000 loop2_isw
00000000ffff04b0 l       .text	0000000000000000 loop3_isw
00000000ffff04cc l       .text	0000000000000000 loop2_cisw
00000000ffff04d0 l       .text	0000000000000000 loop3_cisw
00000000ffff04ec l       .text	0000000000000000 loop2_csw
00000000ffff04f0 l       .text	0000000000000000 loop3_csw
0000000000000000 l    df *ABS*	0000000000000000 ./build/zynqmp/release/bl31/misc_helpers.o
00000000ffff055c l     F .text	00000000000000e8 zeromem_dczva
0000000000000000 l    df *ABS*	0000000000000000 ./build/zynqmp/release/bl31/platform_helpers.o
0000000000000000 l    df *ABS*	0000000000000000 ./build/zynqmp/release/bl31/console.o
00000000ffff6770 l       .data	0000000000000000 console_base
00000000ffff0670 l       .text	0000000000000000 init_fail
0000000000000000 l    df *ABS*	0000000000000000 ./build/zynqmp/release/bl31/zynqmp_helpers.o
0000000000000000 l    df *ABS*	0000000000000000 ./build/zynqmp/release/bl31/cdns_console.o
00000000ffff0724 l       .text	0000000000000000 core_init_fail
0000000000000000 l    df *ABS*	0000000000000000 memcpy.c
0000000000000000 l    df *ABS*	0000000000000000 memmove.c
0000000000000000 l    df *ABS*	0000000000000000 memset.c
0000000000000000 l    df *ABS*	0000000000000000 printf.c
00000000ffff07e0 l     F .text	00000000000000b8 unsigned_num_print
0000000000000000 l    df *ABS*	0000000000000000 putchar.c
0000000000000000 l    df *ABS*	0000000000000000 strlen.c
0000000000000000 l    df *ABS*	0000000000000000 
00000000ffffe008 g     O coherent_ram	0000000000000008 pm_client_secure_lock
00000000ffff0ca0 g     F .text	000000000000002c putchar
00000000fffed5ec g     F .text	00000000000000c0 cm_prepare_el3_exit
00000000fffef3bc g     F .text	000000000000000c mdelay
00000000fffefb24 g     F .text	0000000000000004 ipi_mb_disable_irq
00000000fffea23c g     F .text	0000000000000128 ipi_smc_handler
00000000fffebb94 g     F .text	0000000000000038 pm_rsa_core
00000000fffef970  w    F .text	0000000000000030 plat_ic_get_pending_interrupt_type
00000000fffed550 g     F .text	000000000000007c cm_el1_sysregs_context_restore
00000000fffee4a0 g     F .text	0000000000000028 psci_migrate_info_up_cpu
00000000fffff000 g       coherent_ram	0000000000000000 __BL31_END__
00000000fffee24c g     F .text	00000000000000ec psci_cpu_suspend
00000000fffff000 g       coherent_ram	0000000000000000 __COHERENT_RAM_END__
00000000ffff006c g     F .text	0000000000000020 reset_handler
00000000ffff1600 g     F .text	0000000000000000 sync_exception_aarch32
00000000ffff0554 g     F .text	0000000000000008 zeromem
00000000fffeb410 g     F .text	0000000000000030 pm_init_finalize
00000000ffff201e g     O .rodata	000000000000001d version_string
00000000ffff2f20 g       .rodata	0000000000000000 __pubsub_psci_suspend_pwrdown_finish_end
00000000fffea564 g     F .text	0000000000000010 pm_ipi_irq_clear
00000000fffebecc g     F .text	0000000000000048 pm_pll_get_mode
00000000fffee028 g     F .text	00000000000000f8 psci_validate_entry_point
00000000fffeed50 g     F .text	0000000000000004 print_entry_point_info
00000000fffecbe8 g     F .text	0000000000000050 pm_clock_pll_get_state
00000000fffed12c g     F .text	000000000000000c cm_get_context
00000000fffeb0dc g     F .text	000000000000000c pm_get_shutdown_scope
00000000ffff0254 g     F .text	0000000000000048 save_gp_registers
00000000fffebfc0 g     F .text	0000000000000010 pm_api_pinctrl_get_num_pins
00000000fffedf9c g     F .text	000000000000006c psci_release_pwr_domain_locks
00000000fffedbf0 g     F .text	0000000000000024 psci_validate_power_state
00000000fffea98c g     F .text	0000000000000020 plat_core_pos_by_mpidr
00000000fffeb774 g     F .text	0000000000000038 pm_pinctrl_get_function
00000000fffeca60 g     F .text	000000000000006c pm_api_clock_get_max_divisor
00000000ffff3000 g       .rodata	0000000000000000 __RW_START__
00000000fffebc04 g     F .text	0000000000000038 pm_fpga_read
00000000ffff6760 g     O .data	0000000000000008 primary_proc
00000000fffefbe4 g     F .text	0000000000000198 zynqmp_config_setup
00000000fffef560 g     F .text	0000000000000020 gicv2_cpuif_enable
00000000fffece18 g     F .text	000000000000011c pm_client_suspend
00000000fffebe7c g     F .text	0000000000000050 pm_pll_set_mode
00000000fffedb50 g     F .text	00000000000000a0 psci_cpu_suspend_finish
00000000fffeb57c g     F .text	0000000000000038 pm_mmio_read
00000000fffea5e0 g     F .text	000000000000001c bl31_plat_get_next_image_ep_info
00000000ffff0534 g     F .text	0000000000000010 dcsw_op_level1
00000000ffff035c g     F .text	000000000000002c do_panic
00000000fffef5e8 g     F .text	0000000000000058 gicv2_distif_init
00000000fffeb740 g     F .text	0000000000000034 pm_pinctrl_release
00000000ffff077c g     F .text	0000000000000048 memmove
00000000ffff8430 g     O .bss	0000000000000080 rt_svc_descs_indices
00000000fffef484 g     F .text	0000000000000014 gicd_write_isenabler
00000000fffea970 g     F .text	000000000000001c plat_setup_psci_ops
00000000ffff1200 g     F .text	0000000000000000 sync_exception_sp_elx
00000000ffff1000 g     F .text	0000000000000000 sync_exception_sp_el0
00000000ffff0194 g     F .text	000000000000000c psci_power_down_wfi
00000000fffeb2f0 g     F .text	0000000000000048 pm_req_node
00000000fffef920  w    F .text	000000000000000c plat_arm_get_mmap
00000000fffee3b4 g     F .text	0000000000000058 psci_affinity_info
00000000fffeee14  w    F .text	0000000000000030 plat_log_get_prefix
00000000fffee40c g     F .text	000000000000007c psci_migrate
00000000ffff29e8 g     O .rodata	0000000000000080 plat_arm_mmap
00000000fffebc90 g     F .text	00000000000000a8 pm_clock_setdivider
00000000fffea9ac g     F .text	0000000000000160 fsbl_atf_handover
00000000fffefba4 g     F .text	0000000000000040 zynqmp_get_bootmode
00000000ffff2000 g     O .rodata	000000000000001e build_message
00000000ffff02f0 g     F .text	0000000000000024 el3_exit
00000000fffee70c g     F .text	0000000000000310 psci_setup
00000000fffef250 g     F .text	0000000000000084 init_xlat_tables
00000000fffeedec g     F .text	0000000000000028 setup_page_tables
00000000fffea6c8 g     F .text	0000000000000004 bl31_plat_runtime_setup
00000000ffff3000 g       .data	0000000000000000 __DATA_START__
00000000ffffe010 g     O coherent_ram	0000000000000020 psci_locks
00000000ffff0648  w    F .text	0000000000000004 plat_disable_acp
00000000fffeb1f8 g     F .text	0000000000000044 pm_force_powerdown
00000000fffedf00 g     F .text	0000000000000024 psci_find_target_suspend_lvl
00000000fffef500 g     F .text	000000000000000c gicd_set_isenabler
00000000fffebb5c g     F .text	0000000000000038 pm_sha_hash
00000000fffee6f0 g     F .text	000000000000001c psci_arch_setup
00000000fffeea54 g     F .text	0000000000000038 psci_system_reset
00000000fffef6b4 g     F .text	000000000000009c gicv2_spis_configure_defaults
00000000ffffe000 g     O coherent_ram	0000000000000008 pm_secure_lock
00000000fffef50c g     F .text	0000000000000014 gicd_set_ipriorityr
00000000ffff075c g     F .text	0000000000000020 memcpy
00000000fffee008 g     F .text	0000000000000020 psci_validate_mpidr
00000000fffee338 g     F .text	0000000000000074 psci_system_suspend
00000000ffff1380 g     F .text	0000000000000000 serror_sp_elx
00000000fffed4f8 g     F .text	000000000000002c cm_init_context_by_index
00000000fffebd38 g     F .text	000000000000004c pm_pll_get_parameter
00000000fffebf14 g     F .text	000000000000007c pm_register_access
00000000ffff1080 g     F .text	0000000000000000 irq_sp_el0
00000000fffecdfc g     F .text	000000000000001c pm_get_proc
00000000ffff055c g     F .text	00000000000000e8 zero_normalmem
00000000fffedd1c g     F .text	0000000000000044 psci_get_parent_pwr_domain_nodes
00000000fffeb7e0 g     F .text	0000000000000030 pm_pinctrl_get_config
00000000ffff072c g     F .text	0000000000000028 console_core_putc
00000000ffff2f20 g     O .rodata	0000000000000008 __cb_func_spe_drain_buffers_hookcm_entering_secure_world
00000000fffecce8 g     F .text	0000000000000034 pm_clock_set_pll_mode
00000000fffeb1a0 g     F .text	0000000000000058 pm_req_wakeup
00000000fffeee44  w    F .text	0000000000000040 plat_ea_handler
00000000ffff029c g     F .text	0000000000000048 restore_gp_registers
00000000fffef654 g     F .text	0000000000000018 gicv2_get_pending_interrupt_type
00000000fffeea1c g     F .text	0000000000000038 psci_system_off
00000000ffff070c g     F .text	0000000000000004 platform_mem_init
00000000fffeb98c g     F .text	0000000000000068 pm_clock_setparent
00000000fffef498 g     F .text	0000000000000014 gicd_write_icenabler
00000000fffecc38 g     F .text	000000000000004c pm_clock_pll_set_parent
00000000ffff2f28 g       .rodata	0000000000000000 __pubsub_cm_exited_secure_world_end
00000000fffeb158 g     F .text	0000000000000048 pm_req_suspend
00000000fffeb478 g     F .text	0000000000000038 pm_register_notifier
00000000fffef160 g     F .text	000000000000003c mmap_add
00000000fffea110 g     F .text	0000000000000074 bl31_warm_entrypoint
00000000fffefd7c g     F .text	0000000000000034 plat_get_syscnt_freq2
00000000ffff064c  w    F .text	0000000000000008 plat_panic_handler
00000000ffff2e28 g       .rodata	0000000000000000 __RT_SVC_DESCS_START__
00000000fffea184 g     F .text	0000000000000014 cci_init
00000000fffef904  w    F .text	000000000000000c plat_arm_interconnect_exit_coherency
00000000fffeb810 g     F .text	0000000000000038 pm_pinctrl_set_config
00000000ffff7880 g       stacks	0000000000000000 __STACKS_END__
00000000fffef8f8  w    F .text	000000000000000c plat_arm_interconnect_enter_coherency
00000000ffff2f20 g       .rodata	0000000000000000 __pubsub_psci_suspend_pwrdown_start_end
00000000ffff03c0 g     F .text	0000000000000038 clean_dcache_range
00000000ffff008c g     F .text	0000000000000024 prepare_cpu_pwr_dwn
00000000fffebf90 g     F .text	0000000000000030 pm_efuse_access
00000000fffecd1c g     F .text	0000000000000038 pm_clock_get_pll_mode
00000000fffee120 g     F .text	00000000000000a8 psci_warmboot_entrypoint
00000000fffec26c g     F .text	00000000000004a4 pm_api_ioctl
00000000fffea7d0 g     F .text	0000000000000010 zynqmp_get_sys_suspend_power_state
00000000fffeb3d8 g     F .text	0000000000000030 pm_get_api_version
00000000fffeb684 g     F .text	0000000000000030 pm_aes_engine
00000000fffefafc g     F .text	0000000000000028 ipi_mb_ack
00000000ffff2f28 g       .rodata	0000000000000000 __pubsub_cm_exited_normal_world_start
00000000ffff0034  w    F .text	0000000000000010 plat_set_my_stack
00000000fffed15c g     F .text	0000000000000028 cm_set_context_by_index
00000000ffff2e88 g       .rodata	0000000000000000 __RT_SVC_DESCS_END__
00000000fffea3a8 g     F .text	0000000000000024 pm_ipi_init
00000000ffff032c g     F .text	0000000000000030 asm_print_hex
00000000fffea6cc g     F .text	00000000000000d0 bl31_plat_arch_setup
00000000fffed06c g     F .text	0000000000000064 bl31_main
00000000fffef074 g     F .text	0000000000000004 print_mmap
00000000fffefa50 g     F .text	0000000000000028 ipi_mb_release
00000000ffff85c0 g     O .bss	0000000000000040 psci_cpu_pd_nodes
00000000ffff0314 g     F .text	0000000000000018 asm_print_str
00000000ffff0710 g     F .text	000000000000001c console_core_init
00000000ffff0654  w    F .text	0000000000000004 bl31_plat_enable_mmu
00000000fffeb338 g     F .text	0000000000000048 pm_set_requirement
00000000fffed3f8 g     F .text	0000000000000004 cm_init
00000000ffff0704 g     F .text	0000000000000008 plat_crash_console_flush
00000000ffff1000 g       .text	0000000000000000 runtime_exceptions
00000000fffeac3c g     F .text	00000000000004a0 pm_smc_handler
00000000fffea7c8 g     F .text	0000000000000008 zynqmp_validate_ns_entrypoint
00000000fffea1d4 g     F .text	000000000000003c cci_disable_snoop_dvm_reqs
00000000fffecd54 g     F .text	0000000000000034 pm_clock_id_is_valid
00000000ffff0660 g     F .text	0000000000000014 console_init
00000000ffff2f28 g       .rodata	0000000000000000 __pubsub_cm_exited_secure_world_start
00000000fffee1c8 g     F .text	0000000000000020 psci_spd_migrate_info
00000000ffff0058 g     F .text	0000000000000014 _cpu_data_by_index
00000000fffee1e8 g     F .text	0000000000000004 psci_print_power_domain_map
00000000fffea210 g     F .text	000000000000002c plat_get_target_pwr_state
00000000ffff0674 g     F .text	000000000000000c console_putc
00000000ffff0690 g     F .text	000000000000001c plat_secondary_cold_boot_setup
00000000fffea554 g     F .text	0000000000000010 pm_ipi_irq_enable
00000000fffef4bc g     F .text	0000000000000014 gicd_write_icfgr
00000000ffff065c  w    F .text	0000000000000004 plat_handle_el3_ea
00000000fffedc24 g     F .text	0000000000000058 psci_is_last_on_cpu
00000000ffff0754 g     F .text	0000000000000008 console_cdns_core_flush
00000000ffff06e4 g     F .text	0000000000000018 plat_crash_console_init
00000000ffff1680 g     F .text	0000000000000000 irq_aarch32
00000000ffff0388 g     F .text	0000000000000038 flush_dcache_range
00000000fffea198 g     F .text	000000000000003c cci_enable_snoop_dvm_reqs
00000000fffef3c8 g     F .text	000000000000000c timer_init
00000000fffea5fc g     F .text	00000000000000b8 bl31_early_platform_setup2
00000000fffeabb4 g     F .text	0000000000000010 zynqmp_ipi_config_table_init
00000000fffef7fc g     F .text	00000000000000e8 gicv2_secure_ppi_sgi_setup_props
00000000fffec950 g     F .text	00000000000000cc pm_api_clock_get_parents
00000000ffff6780 g       stacks	0000000000000000 __RELA_END__
00000000ffff6780 g       stacks	0000000000000000 __RELA_START__
00000000fffeb0e8 g     F .text	0000000000000070 pm_self_suspend
00000000fffebc3c g     F .text	0000000000000054 pm_pll_set_parameter
00000000ffff1180 g     F .text	0000000000000000 serror_sp_el0
00000000fffef66c g     F .text	000000000000003c gicv2_set_pe_target_mask
00000000ffff0898 g     F .text	0000000000000408 vprintf
00000000fffef6a8 g     F .text	000000000000000c gicv2_get_cpuif_id
00000000fffebfd0 g     F .text	0000000000000010 pm_api_pinctrl_get_num_functions
00000000fffefe94 g     F .text	0000000000000004 report_unhandled_exception
00000000fffed904 g     F .text	00000000000000c0 psci_cpu_on_finish
00000000ffff0520 g     F .text	0000000000000014 dcsw_op_all
00000000fffee3ac g     F .text	0000000000000008 psci_cpu_off
00000000ffff0644  w    F .text	0000000000000004 plat_reset_handler
00000000fffef350 g     F .text	0000000000000004 enable_mmu_direct_el3
00000000fffefb28 g     F .text	0000000000000028 ipi_mb_enable_irq
00000000ffff2f28 g       .rodata	0000000000000000 __pubsub_cm_entering_normal_world_end
00000000fffeb848 g     F .text	0000000000000004 pm_ioctl
00000000ffff00d0 g     F .text	000000000000003c get_cpu_ops_ptr
00000000fffea000 g     F .text	0000000000000110 bl31_entrypoint
00000000fffed138 g     F .text	0000000000000024 cm_get_context_by_index
00000000fffed524 g     F .text	000000000000002c cm_init_my_context
00000000ffff1580 g     F .text	0000000000000000 serror_aarch64
00000000fffeb70c g     F .text	0000000000000034 pm_pinctrl_request
00000000fffec754 g     F .text	000000000000008c pm_api_clock_get_name
00000000fffef8e4  w    F .text	0000000000000014 plat_arm_interconnect_init
00000000ffff0044 g     F .text	0000000000000014 init_cpu_data_ptr
00000000fffef958  w    F .text	0000000000000018 plat_arm_gic_pcpu_init
00000000ffff3000 g       .rodata	0000000000000000 __RODATA_END__
00000000fffeb4b0 g     F .text	0000000000000030 pm_get_op_characteristic
00000000fffeb5ec g     F .text	0000000000000030 pm_fpga_get_status
00000000fffefe98 g     F .text	0000000000000040 enter_lower_el_sync_ea
00000000fffef230 g     F .text	000000000000000c xlat_arch_current_el
00000000fffef580 g     F .text	0000000000000020 gicv2_cpuif_disable
00000000fffeb64c g     F .text	0000000000000038 pm_secure_rsaaes
00000000fffef45c g     F .text	0000000000000014 gicd_read_icfgr
00000000fffecf84 g     F .text	000000000000005c pm_client_wakeup
00000000fffeecc4 g     F .text	0000000000000014 spe_supported
00000000fffeb4e0 g     F .text	000000000000002c pm_reset_assert
00000000fffed6ac g     F .text	00000000000000f8 psci_do_cpu_off
00000000ffff8610 g     O .bss	0000000000000004 psci_caps
00000000fffef910  w    F .text	0000000000000008 plat_get_ns_image_entrypoint
00000000fffed3fc g     F .text	00000000000000fc cm_setup_context
00000000fffea000 g       .text	0000000000000000 __BL31_START__
00000000ffff1280 g     F .text	0000000000000000 irq_sp_elx
00000000ffff1100 g     F .text	0000000000000000 fiq_sp_el0
00000000ffff2000 g       .rodata	0000000000000000 __RODATA_START__
00000000fffef9a0 g     F .text	0000000000000014 ipi_config_table_init
00000000ffff6778 g       .data	0000000000000000 __DATA_END__
00000000fffea4b4 g     F .text	00000000000000a0 pm_ipi_send_sync
00000000fffecbd0 g     F .text	0000000000000018 pm_clock_pll_disable
00000000fffeabc4 g     F .text	0000000000000078 pm_setup
00000000fffef938  w    F .text	0000000000000020 plat_arm_gic_init
00000000ffff2e88 g       .rodata	0000000000000000 __CPU_OPS_START__
00000000fffef354 g     F .text	0000000000000068 udelay
00000000ffff06d4 g     F .text	0000000000000010 zynqmp_calc_core_pos
00000000fffec128 g     F .text	00000000000000b4 pm_api_pinctrl_get_pin_groups
00000000ffff03f8 g     F .text	0000000000000038 inv_dcache_range
00000000ffff02e4 g     F .text	000000000000000c restore_gp_registers_eret
00000000fffee59c g     F .text	0000000000000154 psci_smc_handler
00000000fffef400 g     F .text	0000000000000048 generic_delay_timer_init
00000000fffeb544 g     F .text	0000000000000038 pm_mmio_write
00000000fffed9c4 g     F .text	000000000000018c psci_cpu_suspend_start
00000000fffedc7c g     F .text	0000000000000020 psci_init_req_local_pwr_states
00000000ffff2f28 g       .rodata	0000000000000000 __pubsub_cm_entering_secure_world_end
00000000fffea424 g     F .text	0000000000000058 pm_ipi_send
00000000fffef3e0 g     F .text	0000000000000020 generic_delay_timer_init_args
00000000ffff010c g     F .text	0000000000000010 cpu_get_rev_var
00000000fffed7a4 g     F .text	0000000000000160 psci_cpu_on_start
00000000fffeded4 g     F .text	000000000000002c psci_find_max_off_lvl
00000000ffff06b8 g     F .text	0000000000000014 plat_is_my_cpu_primary
00000000fffef520 g     F .text	0000000000000040 gicd_set_icfgr
00000000ffffe030 g     O coherent_ram	0000000000000040 psci_non_cpu_pd_nodes
00000000ffff8614 g       .bss	0000000000000000 __BSS_END__
00000000ffff2f18 g       .rodata	0000000000000000 __CPU_OPS_END__
00000000fffee1ec g     F .text	0000000000000004 psci_do_pwrdown_sequence
00000000fffecb38 g     F .text	0000000000000068 pm_clock_get_pll_by_related_clk
00000000ffff050c g     F .text	0000000000000014 dcsw_op_louis
00000000fffeb380 g     F .text	000000000000002c pm_release_node
00000000fffea574 g     F .text	0000000000000024 pm_ipi_irq_status
00000000ffff0158 g     F .text	000000000000003c psci_do_pwrdown_cache_maintenance
00000000fffef92c  w    F .text	000000000000000c plat_arm_gic_driver_init
00000000fffea7a8 g     F .text	0000000000000020 zynqmp_validate_power_state
00000000fffeb914 g     F .text	0000000000000068 pm_clock_getstate
00000000fffed5cc g     F .text	0000000000000020 cm_set_next_eret_context
00000000ffff2f20 g       .rodata	0000000000000000 __pubsub_cm_entering_secure_world_start
00000000fffee1f0 g     F .text	000000000000005c psci_cpu_on
00000000fffef19c g     F .text	0000000000000094 init_xlation_table
00000000fffed00c g     F .text	0000000000000060 bl31_prepare_next_image_entry
00000000ffffe000 g       coherent_ram	0000000000000000 __COHERENT_RAM_START__
00000000fffee51c g     F .text	0000000000000080 psci_features
00000000ffff2f20 g       .rodata	0000000000000000 __GOT_END__
00000000ffff07c4 g     F .text	000000000000001c memset
00000000fffeb23c g     F .text	0000000000000040 pm_abort_suspend
00000000fffeb84c g     F .text	0000000000000064 pm_clock_enable
00000000fffedc9c g     F .text	0000000000000080 psci_get_target_local_pwr_states
00000000ffff2f28 g       .rodata	0000000000000000 __pubsub_cm_exited_normal_world_end
00000000fffeb97c g     F .text	0000000000000008 pm_clock_setrate
00000000fffefed8 g     F .text	0000000000000018 enter_lower_el_async_ea
00000000ffff8600 g     O .bss	0000000000000008 psci_plat_pm_ops
00000000ffff0710 g     F .text	000000000000001c console_cdns_core_init
00000000fffef9b4 g     F .text	0000000000000064 ipi_mb_validate
00000000fffeb5b4 g     F .text	0000000000000038 pm_fpga_load
00000000ffff2f20 g       .rodata	0000000000000000 __pubsub_psci_suspend_pwrdown_start_start
00000000ffff2f20 g       .rodata	0000000000000000 __GOT_START__
00000000fffecf34 g     F .text	0000000000000050 pm_client_abort_suspend
00000000fffec744 g     F .text	0000000000000010 pm_api_clock_get_num_clocks
00000000fffed000 g     F .text	000000000000000c get_arm_std_svc_args
00000000ffff2f28 g       .rodata	0000000000000000 __pubsub_cm_entering_normal_world_start
00000000fffecb08 g     F .text	0000000000000030 pm_clock_get_pll_node_id
00000000fffeebd4 g     F .text	00000000000000bc bakery_lock_get
00000000ffff2000 g       .text	0000000000000000 __TEXT_END__
00000000fffeeb30 g     F .text	000000000000005c psci_mem_protect
00000000fffea47c g     F .text	0000000000000038 pm_ipi_buff_read_callb
00000000ffff8428 g     O .bss	0000000000000008 zynqmp_sec_entry
00000000fffeec90 g     F .text	0000000000000034 bakery_lock_release
00000000fffeca1c g     F .text	0000000000000044 pm_api_clock_get_attributes
00000000fffed100 g     F .text	000000000000002c get_interrupt_type_handler
00000000fffeab0c g     F .text	000000000000000c plat_get_power_domain_tree_desc
00000000fffefa18 g     F .text	0000000000000038 ipi_mb_open
00000000fffef750 g     F .text	00000000000000ac gicv2_secure_spis_configure_props
00000000fffef4ac g     F .text	0000000000000010 gicd_write_ipriorityr
00000000fffecba0 g     F .text	0000000000000030 pm_clock_pll_enable
00000000ffff0754 g     F .text	0000000000000008 console_core_flush
00000000fffea3cc g     F .text	0000000000000058 pm_ipi_send_non_blocking
00000000fffee4c8 g     F .text	0000000000000054 psci_node_hw_state
00000000fffecc84 g     F .text	0000000000000064 pm_clock_pll_get_parent
00000000fffeb408 g     F .text	0000000000000008 pm_set_configuration
00000000ffff0544 g     F .text	0000000000000010 dcsw_op_level2
00000000fffeb50c g     F .text	0000000000000038 pm_reset_get_status
00000000ffff00b0 g     F .text	0000000000000020 init_cpu_ops
00000000ffff0680 g     F .text	000000000000000c console_flush
00000000ffff1300 g     F .text	0000000000000000 fiq_sp_elx
00000000fffeb9f4 g     F .text	0000000000000068 pm_clock_getparent
00000000fffefa78 g     F .text	0000000000000044 ipi_mb_enquire_status
00000000ffff1400 g     F .text	0000000000000000 sync_exception_aarch64
00000000fffeb440 g     F .text	0000000000000038 pm_get_node_status
00000000ffff1500 g     F .text	0000000000000000 fiq_aarch64
00000000fffef448 g     F .text	0000000000000014 gicd_read_igroupr
00000000fffeab1c g     F .text	0000000000000098 sip_svc_smc_handler
00000000ffff0150 g     F .text	0000000000000008 spin_unlock
00000000fffec8b0 g     F .text	00000000000000a0 pm_api_clock_get_fixedfactor_params
00000000ffff7880 g       .bss	0000000000000000 __BSS_START__
00000000fffecacc g     F .text	000000000000003c pm_clock_get_pll
00000000fffeb27c g     F .text	0000000000000030 pm_set_wakeup_source
00000000fffeed0c g     F .text	0000000000000044 spe_enable
00000000ffff06fc g     F .text	0000000000000008 plat_crash_console_putc
00000000ffff84c0 g     O .bss	0000000000000100 percpu_data
00000000fffeb7ac g     F .text	0000000000000034 pm_pinctrl_set_function
00000000ffff011c g     F .text	0000000000000014 cpu_rev_var_hs
00000000fffef918 g     F .text	0000000000000008 arm_get_spsr_for_bl32_entry
00000000fffecd88 g     F .text	0000000000000074 pm_clock_has_div
00000000ffff0130 g     F .text	0000000000000020 spin_lock
00000000fffedc14 g     F .text	0000000000000010 psci_query_sys_suspend_pwrstate
00000000fffefabc g     F .text	0000000000000040 ipi_mb_notify
00000000fffeed54 g     F .text	0000000000000098 tf_log
00000000fffec034 g     F .text	0000000000000038 pm_api_pinctrl_get_function_name
00000000ffff2f20 g       .rodata	0000000000000000 __pubsub_psci_cpu_on_finish_start
00000000fffec06c g     F .text	00000000000000bc pm_api_pinctrl_get_function_groups
00000000fffed0d0 g     F .text	0000000000000030 get_scr_el3_from_routing_model
00000000fffff000 g       coherent_ram	0000000000000000 __RW_END__
00000000fffeba5c g     F .text	0000000000000100 pm_query_data
00000000fffef23c g     F .text	0000000000000014 xlat_arch_get_xn_desc
00000000ffffe070 g       coherent_ram	0000000000000000 __COHERENT_RAM_END_UNALIGNED__
00000000fffea6b4 g     F .text	0000000000000014 bl31_platform_setup
00000000fffea79c g     F .text	000000000000000c zynqmp_cpu_standby
00000000ffff6780 g       stacks	0000000000000000 __STACKS_START__
00000000fffeddd0 g     F .text	0000000000000104 psci_do_state_coordination
00000000fffeea8c g     F .text	00000000000000a4 psci_system_reset2
00000000fffef2d4 g     F .text	000000000000007c enable_mmu_el3
00000000ffff1780 g     F .text	0000000000000000 serror_aarch32
00000000ffff0658  w    F .text	0000000000000004 plat_handle_double_fault
00000000ffff2f20 g       .rodata	0000000000000000 __pubsub_psci_suspend_pwrdown_finish_start
00000000ffff06cc g     F .text	0000000000000008 plat_my_core_pos
00000000fffef640 g     F .text	0000000000000014 gicv2_driver_init
00000000ffff25d0 g     O .rodata	0000000000000010 apu_ipi
00000000fffed184 g     F .text	0000000000000138 runtime_svc_init
00000000fffeb3ac g     F .text	000000000000002c pm_set_max_latency
00000000ffff072c g     F .text	0000000000000028 console_cdns_core_putc
00000000ffff0ccc g     F .text	000000000000001c strlen
00000000fffef5a0 g     F .text	0000000000000048 gicv2_pcpu_distif_init
00000000ffff1480 g     F .text	0000000000000000 irq_aarch64
00000000fffee488 g     F .text	0000000000000018 psci_migrate_info_type
00000000fffeb8b0 g     F .text	0000000000000064 pm_clock_disable
00000000fffeeb8c g     F .text	0000000000000048 psci_mem_chk_range
00000000ffff035c  w      .text	0000000000000000 el3_panic
00000000fffef4d0 g     F .text	0000000000000030 gicd_clr_igroupr
00000000fffebd84 g     F .text	00000000000000f8 pm_clock_getdivider
00000000fffefb78 g     F .text	000000000000002c zynqmp_get_uart_clk
00000000fffeb2ac g     F .text	0000000000000044 pm_system_shutdown
00000000fffeb984 g     F .text	0000000000000008 pm_clock_getrate
00000000fffedf24 g     F .text	0000000000000078 psci_acquire_pwr_domain_locks
00000000fffeb61c g     F .text	0000000000000030 pm_get_chipid
00000000ffff2f20 g       .rodata	0000000000000000 __pubsub_psci_cpu_on_finish_end
00000000ffff01a0 g     F .text	00000000000000b4 el1_sysregs_context_restore
00000000fffec7e0 g     F .text	00000000000000d0 pm_api_clock_get_topology
00000000fffedd60 g     F .text	0000000000000070 psci_set_pwr_domains_to_run
00000000fffebbcc g     F .text	0000000000000038 pm_secure_image
00000000fffecfe0 g     F .text	0000000000000020 pm_set_suspend_mode
00000000fffef470 g     F .text	0000000000000014 gicd_write_igroupr
00000000fffefe94 g       .text	0000000000000000 report_unhandled_interrupt
00000000fffeb6b4 g     F .text	0000000000000058 pm_get_callbackdata
00000000ffff1700 g     F .text	0000000000000000 fiq_aarch32
00000000ffff0018  w    F .text	000000000000001c plat_get_my_stack
00000000fffef078 g     F .text	00000000000000e8 mmap_add_region
00000000fffea000 g       .text	0000000000000000 __TEXT_START__
00000000fffebfe0 g     F .text	0000000000000054 pm_api_pinctrl_get_num_func_groups
00000000ffff8608 g     O .bss	0000000000000008 psci_spd_pm



Disassembly of section .text:

00000000fffea000 <bl31_entrypoint>:
    fffea000:	d2810600 	mov	x0, #0x830                 	// #2096
    fffea004:	f2a618a0 	movk	x0, #0x30c5, lsl #16
    fffea008:	d51e1000 	msr	sctlr_el3, x0
    fffea00c:	d5033fdf 	isb
    fffea010:	10037f80 	adr	x0, ffff1000 <sync_exception_sp_el0>
    fffea014:	d51ec000 	msr	vbar_el3, x0
    fffea018:	d5033fdf 	isb
    fffea01c:	94001814 	bl	ffff006c <reset_handler>
    fffea020:	d2820141 	mov	x1, #0x100a                	// #4106
    fffea024:	d53e1000 	mrs	x0, sctlr_el3
    fffea028:	aa010000 	orr	x0, x0, x1
    fffea02c:	d51e1000 	msr	sctlr_el3, x0
    fffea030:	d5033fdf 	isb
    fffea034:	94001804 	bl	ffff0044 <init_cpu_data_ptr>
    fffea038:	d2804700 	mov	x0, #0x238                 	// #568
    fffea03c:	f2a00060 	movk	x0, #0x3, lsl #16
    fffea040:	d51e1100 	msr	scr_el3, x0
    fffea044:	d2900000 	mov	x0, #0x8000                	// #32768
    fffea048:	f2a00020 	movk	x0, #0x1, lsl #16
    fffea04c:	d51e1320 	msr	mdcr_el3, x0
    fffea050:	d50344ff 	msr	daifclr, #0x4
    fffea054:	d2800000 	mov	x0, #0x0                   	// #0
    fffea058:	d51e1140 	msr	cptr_el3, x0
    fffea05c:	94001997 	bl	ffff06b8 <plat_is_my_cpu_primary>
    fffea060:	35000060 	cbnz	w0, fffea06c <do_primary_cold_boot>
    fffea064:	9400198b 	bl	ffff0690 <plat_secondary_cold_boot_setup>
    fffea068:	940018bd 	bl	ffff035c <do_panic>

00000000fffea06c <do_primary_cold_boot>:
    fffea06c:	940019a8 	bl	ffff070c <platform_mem_init>
    fffea070:	b0000040 	adrp	x0, ffff3000 <__RODATA_END__>
    fffea074:	91000000 	add	x0, x0, #0x0
    fffea078:	b00000a1 	adrp	x1, fffff000 <__BL31_END__>
    fffea07c:	91000021 	add	x1, x1, #0x0
    fffea080:	cb000021 	sub	x1, x1, x0
    fffea084:	940018dd 	bl	ffff03f8 <inv_dcache_range>
    fffea088:	b0000060 	adrp	x0, ffff7000 <__RELA_END__+0x880>
    fffea08c:	91220000 	add	x0, x0, #0x880
    fffea090:	d0000061 	adrp	x1, ffff8000 <psci_ns_context+0x640>
    fffea094:	91185021 	add	x1, x1, #0x614
    fffea098:	cb000021 	sub	x1, x1, x0
    fffea09c:	9400192e 	bl	ffff0554 <zeromem>
    fffea0a0:	900000a0 	adrp	x0, ffffe000 <pm_secure_lock>
    fffea0a4:	91000000 	add	x0, x0, #0x0
    fffea0a8:	900000a1 	adrp	x1, ffffe000 <pm_secure_lock>
    fffea0ac:	9101c021 	add	x1, x1, #0x70
    fffea0b0:	cb000021 	sub	x1, x1, x0
    fffea0b4:	94001928 	bl	ffff0554 <zeromem>
    fffea0b8:	d50040bf 	msr	spsel, #0x0
    fffea0bc:	940017de 	bl	ffff0034 <plat_set_my_stack>
    fffea0c0:	d2800014 	mov	x20, #0x0                   	// #0
    fffea0c4:	d2800015 	mov	x21, #0x0                   	// #0
    fffea0c8:	d2800016 	mov	x22, #0x0                   	// #0
    fffea0cc:	d2800017 	mov	x23, #0x0                   	// #0
    fffea0d0:	aa1403e0 	mov	x0, x20
    fffea0d4:	aa1503e1 	mov	x1, x21
    fffea0d8:	aa1603e2 	mov	x2, x22
    fffea0dc:	aa1703e3 	mov	x3, x23
    fffea0e0:	94000147 	bl	fffea5fc <bl31_early_platform_setup2>
    fffea0e4:	9400017a 	bl	fffea6cc <bl31_plat_arch_setup>
    fffea0e8:	94000be1 	bl	fffed06c <bl31_main>
    fffea0ec:	100478a0 	adr	x0, ffff3000 <__RODATA_END__>
    fffea0f0:	10063441 	adr	x1, ffff6778 <__DATA_END__>
    fffea0f4:	cb000021 	sub	x1, x1, x0
    fffea0f8:	940018b2 	bl	ffff03c0 <clean_dcache_range>
    fffea0fc:	1006bc20 	adr	x0, ffff7880 <__STACKS_END__>
    fffea100:	100728a1 	adr	x1, ffff8614 <__BSS_END__>
    fffea104:	cb000021 	sub	x1, x1, x0
    fffea108:	940018ae 	bl	ffff03c0 <clean_dcache_range>
    fffea10c:	14001879 	b	ffff02f0 <el3_exit>

00000000fffea110 <bl31_warm_entrypoint>:
    fffea110:	d2810600 	mov	x0, #0x830                 	// #2096
    fffea114:	f2a618a0 	movk	x0, #0x30c5, lsl #16
    fffea118:	d51e1000 	msr	sctlr_el3, x0
    fffea11c:	d5033fdf 	isb
    fffea120:	10037700 	adr	x0, ffff1000 <sync_exception_sp_el0>
    fffea124:	d51ec000 	msr	vbar_el3, x0
    fffea128:	d5033fdf 	isb
    fffea12c:	940017d0 	bl	ffff006c <reset_handler>
    fffea130:	d2820141 	mov	x1, #0x100a                	// #4106
    fffea134:	d53e1000 	mrs	x0, sctlr_el3
    fffea138:	aa010000 	orr	x0, x0, x1
    fffea13c:	d51e1000 	msr	sctlr_el3, x0
    fffea140:	d5033fdf 	isb
    fffea144:	940017c0 	bl	ffff0044 <init_cpu_data_ptr>
    fffea148:	d2804700 	mov	x0, #0x238                 	// #568
    fffea14c:	f2a00060 	movk	x0, #0x3, lsl #16
    fffea150:	d51e1100 	msr	scr_el3, x0
    fffea154:	d2900000 	mov	x0, #0x8000                	// #32768
    fffea158:	f2a00020 	movk	x0, #0x1, lsl #16
    fffea15c:	d51e1320 	msr	mdcr_el3, x0
    fffea160:	d50344ff 	msr	daifclr, #0x4
    fffea164:	d2800000 	mov	x0, #0x0                   	// #0
    fffea168:	d51e1140 	msr	cptr_el3, x0
    fffea16c:	d50040bf 	msr	spsel, #0x0
    fffea170:	940017b1 	bl	ffff0034 <plat_set_my_stack>
    fffea174:	aa1f03e0 	mov	x0, xzr
    fffea178:	94001937 	bl	ffff0654 <bl31_plat_enable_mmu>
    fffea17c:	94000fe9 	bl	fffee120 <psci_warmboot_entrypoint>
    fffea180:	1400185c 	b	ffff02f0 <el3_exit>

00000000fffea184 <cci_init>:
    fffea184:	b0000062 	adrp	x2, ffff7000 <__RELA_END__+0x880>
    fffea188:	f9044040 	str	x0, [x2, #2176]
    fffea18c:	b0000060 	adrp	x0, ffff7000 <__RELA_END__+0x880>
    fffea190:	f9044401 	str	x1, [x0, #2184]
    fffea194:	d65f03c0 	ret

00000000fffea198 <cci_enable_snoop_dvm_reqs>:
    fffea198:	b0000061 	adrp	x1, ffff7000 <__RELA_END__+0x880>
    fffea19c:	52800063 	mov	w3, #0x3                   	// #3
    fffea1a0:	f9444421 	ldr	x1, [x1, #2184]
    fffea1a4:	b8a05820 	ldrsw	x0, [x1, w0, uxtw #2]
    fffea1a8:	b0000061 	adrp	x1, ffff7000 <__RELA_END__+0x880>
    fffea1ac:	91000400 	add	x0, x0, #0x1
    fffea1b0:	f9444022 	ldr	x2, [x1, #2176]
    fffea1b4:	d374cc00 	lsl	x0, x0, #12
    fffea1b8:	b8226803 	str	w3, [x0, x2]
    fffea1bc:	d5033b9f 	dsb	ish
    fffea1c0:	f9444020 	ldr	x0, [x1, #2176]
    fffea1c4:	91003000 	add	x0, x0, #0xc
    fffea1c8:	b9400001 	ldr	w1, [x0]
    fffea1cc:	3707ffe1 	tbnz	w1, #0, fffea1c8 <cci_enable_snoop_dvm_reqs+0x30>
    fffea1d0:	d65f03c0 	ret

00000000fffea1d4 <cci_disable_snoop_dvm_reqs>:
    fffea1d4:	b0000061 	adrp	x1, ffff7000 <__RELA_END__+0x880>
    fffea1d8:	12800063 	mov	w3, #0xfffffffc            	// #-4
    fffea1dc:	f9444421 	ldr	x1, [x1, #2184]
    fffea1e0:	b8a05820 	ldrsw	x0, [x1, w0, uxtw #2]
    fffea1e4:	b0000061 	adrp	x1, ffff7000 <__RELA_END__+0x880>
    fffea1e8:	91000400 	add	x0, x0, #0x1
    fffea1ec:	f9444022 	ldr	x2, [x1, #2176]
    fffea1f0:	d374cc00 	lsl	x0, x0, #12
    fffea1f4:	b8226803 	str	w3, [x0, x2]
    fffea1f8:	d5033b9f 	dsb	ish
    fffea1fc:	f9444020 	ldr	x0, [x1, #2176]
    fffea200:	91003000 	add	x0, x0, #0xc
    fffea204:	b9400001 	ldr	w1, [x0]
    fffea208:	3707ffe1 	tbnz	w1, #0, fffea204 <cci_disable_snoop_dvm_reqs+0x30>
    fffea20c:	d65f03c0 	ret

00000000fffea210 <plat_get_target_pwr_state>:
    fffea210:	51000442 	sub	w2, w2, #0x1
    fffea214:	52800040 	mov	w0, #0x2                   	// #2
    fffea218:	91000442 	add	x2, x2, #0x1
    fffea21c:	8b020022 	add	x2, x1, x2
    fffea220:	38401423 	ldrb	w3, [x1], #1
    fffea224:	6b00007f 	cmp	w3, w0
    fffea228:	1a803060 	csel	w0, w3, w0, cc  // cc = lo, ul, last
    fffea22c:	eb02003f 	cmp	x1, x2
    fffea230:	12001c00 	and	w0, w0, #0xff
    fffea234:	54ffff61 	b.ne	fffea220 <plat_get_target_pwr_state+0x10>  // b.any
    fffea238:	d65f03c0 	ret

00000000fffea23c <ipi_smc_handler>:
    fffea23c:	a9bc7bfd 	stp	x29, x30, [sp, #-64]!
    fffea240:	910003fd 	mov	x29, sp
    fffea244:	a9025bf5 	stp	x21, x22, [sp, #32]
    fffea248:	2a0003f6 	mov	w22, w0
    fffea24c:	a90153f3 	stp	x19, x20, [sp, #16]
    fffea250:	aa0203f5 	mov	x21, x2
    fffea254:	d35876c0 	ubfx	x0, x22, #24, #6
    fffea258:	aa0103f4 	mov	x20, x1
    fffea25c:	7100bc1f 	cmp	w0, #0x2f
    fffea260:	f9001bf7 	str	x23, [sp, #48]
    fffea264:	aa0603f3 	mov	x19, x6
    fffea268:	1a9f97e2 	cset	w2, hi  // hi = pmore
    fffea26c:	2a1503e1 	mov	w1, w21
    fffea270:	2a1403e0 	mov	w0, w20
    fffea274:	aa0303f7 	mov	x23, x3
    fffea278:	940015cf 	bl	fffef9b4 <ipi_mb_validate>
    fffea27c:	34000080 	cbz	w0, fffea28c <ipi_smc_handler+0x50>
    fffea280:	93407c00 	sxtw	x0, w0
    fffea284:	f9000260 	str	x0, [x19]
    fffea288:	1400001e 	b	fffea300 <ipi_smc_handler+0xc4>
    fffea28c:	12003ed6 	and	w22, w22, #0xffff
    fffea290:	514006d6 	sub	w22, w22, #0x1, lsl #12
    fffea294:	71001adf 	cmp	w22, #0x6
    fffea298:	54000628 	b.hi	fffea35c <ipi_smc_handler+0x120>  // b.pmore
    fffea29c:	90000040 	adrp	x0, ffff2000 <__TEXT_END__>
    fffea2a0:	9100f000 	add	x0, x0, #0x3c
    fffea2a4:	38764800 	ldrb	w0, [x0, w22, uxtw]
    fffea2a8:	10000061 	adr	x1, fffea2b4 <ipi_smc_handler+0x78>
    fffea2ac:	8b208820 	add	x0, x1, w0, sxtb #2
    fffea2b0:	d61f0000 	br	x0
    fffea2b4:	2a1503e1 	mov	w1, w21
    fffea2b8:	2a1403e0 	mov	w0, w20
    fffea2bc:	940015d7 	bl	fffefa18 <ipi_mb_open>
    fffea2c0:	f900027f 	str	xzr, [x19]
    fffea2c4:	1400000f 	b	fffea300 <ipi_smc_handler+0xc4>
    fffea2c8:	2a1503e1 	mov	w1, w21
    fffea2cc:	2a1403e0 	mov	w0, w20
    fffea2d0:	940015e0 	bl	fffefa50 <ipi_mb_release>
    fffea2d4:	17fffffb 	b	fffea2c0 <ipi_smc_handler+0x84>
    fffea2d8:	2a1503e1 	mov	w1, w21
    fffea2dc:	2a1403e0 	mov	w0, w20
    fffea2e0:	940015e6 	bl	fffefa78 <ipi_mb_enquire_status>
    fffea2e4:	93407c16 	sxtw	x22, w0
    fffea2e8:	360800b6 	tbz	w22, #1, fffea2fc <ipi_smc_handler+0xc0>
    fffea2ec:	36000097 	tbz	w23, #0, fffea2fc <ipi_smc_handler+0xc0>
    fffea2f0:	2a1503e1 	mov	w1, w21
    fffea2f4:	2a1403e0 	mov	w0, w20
    fffea2f8:	9400160b 	bl	fffefb24 <ipi_mb_disable_irq>
    fffea2fc:	f9000276 	str	x22, [x19]
    fffea300:	aa1303e0 	mov	x0, x19
    fffea304:	f9401bf7 	ldr	x23, [sp, #48]
    fffea308:	a94153f3 	ldp	x19, x20, [sp, #16]
    fffea30c:	a9425bf5 	ldp	x21, x22, [sp, #32]
    fffea310:	a8c47bfd 	ldp	x29, x30, [sp], #64
    fffea314:	d65f03c0 	ret
    fffea318:	120002e2 	and	w2, w23, #0x1
    fffea31c:	2a1503e1 	mov	w1, w21
    fffea320:	2a1403e0 	mov	w0, w20
    fffea324:	940015e6 	bl	fffefabc <ipi_mb_notify>
    fffea328:	17ffffe6 	b	fffea2c0 <ipi_smc_handler+0x84>
    fffea32c:	2a1503e1 	mov	w1, w21
    fffea330:	2a1403e0 	mov	w0, w20
    fffea334:	940015f2 	bl	fffefafc <ipi_mb_ack>
    fffea338:	3607fc57 	tbz	w23, #0, fffea2c0 <ipi_smc_handler+0x84>
    fffea33c:	2a1503e1 	mov	w1, w21
    fffea340:	2a1403e0 	mov	w0, w20
    fffea344:	940015f9 	bl	fffefb28 <ipi_mb_enable_irq>
    fffea348:	17ffffde 	b	fffea2c0 <ipi_smc_handler+0x84>
    fffea34c:	2a1503e1 	mov	w1, w21
    fffea350:	2a1403e0 	mov	w0, w20
    fffea354:	940015f4 	bl	fffefb24 <ipi_mb_disable_irq>
    fffea358:	17ffffda 	b	fffea2c0 <ipi_smc_handler+0x84>
    fffea35c:	92800000 	mov	x0, #0xffffffffffffffff    	// #-1
    fffea360:	17ffffc9 	b	fffea284 <ipi_smc_handler+0x48>

00000000fffea364 <pm_ipi_send_common.isra.2>:
    fffea364:	a9bf7bfd 	stp	x29, x30, [sp, #-16]!
    fffea368:	910003fd 	mov	x29, sp
    fffea36c:	f9400405 	ldr	x5, [x0, #8]
    fffea370:	910700a3 	add	x3, x5, #0x1c0
    fffea374:	910760a6 	add	x6, x5, #0x1d8
    fffea378:	cb050064 	sub	x4, x3, x5
    fffea37c:	d1070084 	sub	x4, x4, #0x1c0
    fffea380:	b8646824 	ldr	w4, [x1, x4]
    fffea384:	b8004464 	str	w4, [x3], #4
    fffea388:	eb06007f 	cmp	x3, x6
    fffea38c:	54ffff61 	b.ne	fffea378 <pm_ipi_send_common.isra.2+0x14>  // b.any
    fffea390:	b9400401 	ldr	w1, [x0, #4]
    fffea394:	b9400000 	ldr	w0, [x0]
    fffea398:	940015c9 	bl	fffefabc <ipi_mb_notify>
    fffea39c:	52800000 	mov	w0, #0x0                   	// #0
    fffea3a0:	a8c17bfd 	ldp	x29, x30, [sp], #16
    fffea3a4:	d65f03c0 	ret

00000000fffea3a8 <pm_ipi_init>:
    fffea3a8:	a9bf7bfd 	stp	x29, x30, [sp, #-16]!
    fffea3ac:	910003fd 	mov	x29, sp
    fffea3b0:	f9400400 	ldr	x0, [x0, #8]
    fffea3b4:	b9400401 	ldr	w1, [x0, #4]
    fffea3b8:	b9400000 	ldr	w0, [x0]
    fffea3bc:	94001597 	bl	fffefa18 <ipi_mb_open>
    fffea3c0:	52800000 	mov	w0, #0x0                   	// #0
    fffea3c4:	a8c17bfd 	ldp	x29, x30, [sp], #16
    fffea3c8:	d65f03c0 	ret

00000000fffea3cc <pm_ipi_send_non_blocking>:
    fffea3cc:	a9bd7bfd 	stp	x29, x30, [sp, #-48]!
    fffea3d0:	910003fd 	mov	x29, sp
    fffea3d4:	a90153f3 	stp	x19, x20, [sp, #16]
    fffea3d8:	aa0003f4 	mov	x20, x0
    fffea3dc:	900000b3 	adrp	x19, ffffe000 <pm_secure_lock>
    fffea3e0:	91000273 	add	x19, x19, #0x0
    fffea3e4:	f90013f5 	str	x21, [sp, #32]
    fffea3e8:	aa1303e0 	mov	x0, x19
    fffea3ec:	aa0103f5 	mov	x21, x1
    fffea3f0:	940011f9 	bl	fffeebd4 <bakery_lock_get>
    fffea3f4:	f9400680 	ldr	x0, [x20, #8]
    fffea3f8:	aa1503e1 	mov	x1, x21
    fffea3fc:	52800002 	mov	w2, #0x0                   	// #0
    fffea400:	97ffffd9 	bl	fffea364 <pm_ipi_send_common.isra.2>
    fffea404:	2a0003f4 	mov	w20, w0
    fffea408:	aa1303e0 	mov	x0, x19
    fffea40c:	94001221 	bl	fffeec90 <bakery_lock_release>
    fffea410:	2a1403e0 	mov	w0, w20
    fffea414:	f94013f5 	ldr	x21, [sp, #32]
    fffea418:	a94153f3 	ldp	x19, x20, [sp, #16]
    fffea41c:	a8c37bfd 	ldp	x29, x30, [sp], #48
    fffea420:	d65f03c0 	ret

00000000fffea424 <pm_ipi_send>:
    fffea424:	a9bd7bfd 	stp	x29, x30, [sp, #-48]!
    fffea428:	910003fd 	mov	x29, sp
    fffea42c:	a90153f3 	stp	x19, x20, [sp, #16]
    fffea430:	aa0003f4 	mov	x20, x0
    fffea434:	900000b3 	adrp	x19, ffffe000 <pm_secure_lock>
    fffea438:	91000273 	add	x19, x19, #0x0
    fffea43c:	f90013f5 	str	x21, [sp, #32]
    fffea440:	aa1303e0 	mov	x0, x19
    fffea444:	aa0103f5 	mov	x21, x1
    fffea448:	940011e3 	bl	fffeebd4 <bakery_lock_get>
    fffea44c:	f9400680 	ldr	x0, [x20, #8]
    fffea450:	aa1503e1 	mov	x1, x21
    fffea454:	52800022 	mov	w2, #0x1                   	// #1
    fffea458:	97ffffc3 	bl	fffea364 <pm_ipi_send_common.isra.2>
    fffea45c:	2a0003f4 	mov	w20, w0
    fffea460:	aa1303e0 	mov	x0, x19
    fffea464:	9400120b 	bl	fffeec90 <bakery_lock_release>
    fffea468:	2a1403e0 	mov	w0, w20
    fffea46c:	f94013f5 	ldr	x21, [sp, #32]
    fffea470:	a94153f3 	ldp	x19, x20, [sp, #16]
    fffea474:	a8c37bfd 	ldp	x29, x30, [sp], #48
    fffea478:	d65f03c0 	ret

00000000fffea47c <pm_ipi_buff_read_callb>:
    fffea47c:	d2800102 	mov	x2, #0x8                   	// #8
    fffea480:	f100203f 	cmp	x1, #0x8
    fffea484:	d2887404 	mov	x4, #0x43a0                	// #17312
    fffea488:	9a829021 	csel	x1, x1, x2, ls  // ls = plast
    fffea48c:	f2a7fcc4 	movk	x4, #0x3fe6, lsl #16
    fffea490:	d2800002 	mov	x2, #0x0                   	// #0
    fffea494:	8b040043 	add	x3, x2, x4
    fffea498:	d37ef463 	lsl	x3, x3, #2
    fffea49c:	b9400063 	ldr	w3, [x3]
    fffea4a0:	b8227803 	str	w3, [x0, x2, lsl #2]
    fffea4a4:	91000442 	add	x2, x2, #0x1
    fffea4a8:	eb02003f 	cmp	x1, x2
    fffea4ac:	54ffff42 	b.cs	fffea494 <pm_ipi_buff_read_callb+0x18>  // b.hs, b.nlast
    fffea4b0:	d65f03c0 	ret

00000000fffea4b4 <pm_ipi_send_sync>:
    fffea4b4:	a9bc7bfd 	stp	x29, x30, [sp, #-64]!
    fffea4b8:	910003fd 	mov	x29, sp
    fffea4bc:	a9025bf5 	stp	x21, x22, [sp, #32]
    fffea4c0:	aa0003f6 	mov	x22, x0
    fffea4c4:	a90153f3 	stp	x19, x20, [sp, #16]
    fffea4c8:	aa0203f5 	mov	x21, x2
    fffea4cc:	f9001bf7 	str	x23, [sp, #48]
    fffea4d0:	aa0103f4 	mov	x20, x1
    fffea4d4:	900000b3 	adrp	x19, ffffe000 <pm_secure_lock>
    fffea4d8:	aa0303f7 	mov	x23, x3
    fffea4dc:	91000260 	add	x0, x19, #0x0
    fffea4e0:	940011bd 	bl	fffeebd4 <bakery_lock_get>
    fffea4e4:	f94006c0 	ldr	x0, [x22, #8]
    fffea4e8:	52800022 	mov	w2, #0x1                   	// #1
    fffea4ec:	aa1403e1 	mov	x1, x20
    fffea4f0:	97ffff9d 	bl	fffea364 <pm_ipi_send_common.isra.2>
    fffea4f4:	350002c0 	cbnz	w0, fffea54c <pm_ipi_send_sync+0x98>
    fffea4f8:	f94006c0 	ldr	x0, [x22, #8]
    fffea4fc:	d2800024 	mov	x4, #0x1                   	// #1
    fffea500:	f9400401 	ldr	x1, [x0, #8]
    fffea504:	aa0103e0 	mov	x0, x1
    fffea508:	cb0102b5 	sub	x21, x21, x1
    fffea50c:	eb0402ff 	cmp	x23, x4
    fffea510:	54000142 	b.cs	fffea538 <pm_ipi_send_sync+0x84>  // b.hs, b.nlast
    fffea514:	b941e034 	ldr	w20, [x1, #480]
    fffea518:	91000260 	add	x0, x19, #0x0
    fffea51c:	940011dd 	bl	fffeec90 <bakery_lock_release>
    fffea520:	2a1403e0 	mov	w0, w20
    fffea524:	f9401bf7 	ldr	x23, [sp, #48]
    fffea528:	a94153f3 	ldp	x19, x20, [sp, #16]
    fffea52c:	a9425bf5 	ldp	x21, x22, [sp, #32]
    fffea530:	a8c47bfd 	ldp	x29, x30, [sp], #64
    fffea534:	d65f03c0 	ret
    fffea538:	b941e402 	ldr	w2, [x0, #484]
    fffea53c:	91000484 	add	x4, x4, #0x1
    fffea540:	b8206aa2 	str	w2, [x21, x0]
    fffea544:	91001000 	add	x0, x0, #0x4
    fffea548:	17fffff1 	b	fffea50c <pm_ipi_send_sync+0x58>
    fffea54c:	2a0003f4 	mov	w20, w0
    fffea550:	17fffff2 	b	fffea518 <pm_ipi_send_sync+0x64>

00000000fffea554 <pm_ipi_irq_enable>:
    fffea554:	f9400400 	ldr	x0, [x0, #8]
    fffea558:	b9400401 	ldr	w1, [x0, #4]
    fffea55c:	b9400000 	ldr	w0, [x0]
    fffea560:	14001572 	b	fffefb28 <ipi_mb_enable_irq>

00000000fffea564 <pm_ipi_irq_clear>:
    fffea564:	f9400400 	ldr	x0, [x0, #8]
    fffea568:	b9400401 	ldr	w1, [x0, #4]
    fffea56c:	b9400000 	ldr	w0, [x0]
    fffea570:	14001563 	b	fffefafc <ipi_mb_ack>

00000000fffea574 <pm_ipi_irq_status>:
    fffea574:	a9bf7bfd 	stp	x29, x30, [sp, #-16]!
    fffea578:	910003fd 	mov	x29, sp
    fffea57c:	f9400400 	ldr	x0, [x0, #8]
    fffea580:	b9400401 	ldr	w1, [x0, #4]
    fffea584:	b9400000 	ldr	w0, [x0]
    fffea588:	9400153c 	bl	fffefa78 <ipi_mb_enquire_status>
    fffea58c:	53010400 	ubfx	w0, w0, #1, #1
    fffea590:	a8c17bfd 	ldp	x29, x30, [sp], #16
    fffea594:	d65f03c0 	ret

00000000fffea598 <bl31_set_default_config>:
    fffea598:	a9be7bfd 	stp	x29, x30, [sp, #-32]!
    fffea59c:	d2ac0000 	mov	x0, #0x60000000            	// #1610612736
    fffea5a0:	910003fd 	mov	x29, sp
    fffea5a4:	f9000bf3 	str	x19, [sp, #16]
    fffea5a8:	b0000073 	adrp	x19, ffff7000 <__RELA_END__+0x880>
    fffea5ac:	91224273 	add	x19, x19, #0x890
    fffea5b0:	f9000660 	str	x0, [x19, #8]
    fffea5b4:	940014d9 	bl	fffef918 <arm_get_spsr_for_bl32_entry>
    fffea5b8:	b9001260 	str	w0, [x19, #16]
    fffea5bc:	940014d5 	bl	fffef910 <plat_get_ns_image_entrypoint>
    fffea5c0:	b0000061 	adrp	x1, ffff7000 <__RELA_END__+0x880>
    fffea5c4:	9123a021 	add	x1, x1, #0x8e8
    fffea5c8:	f9400bf3 	ldr	x19, [sp, #16]
    fffea5cc:	f9000420 	str	x0, [x1, #8]
    fffea5d0:	52807920 	mov	w0, #0x3c9                 	// #969
    fffea5d4:	b9001020 	str	w0, [x1, #16]
    fffea5d8:	a8c27bfd 	ldp	x29, x30, [sp], #32
    fffea5dc:	d65f03c0 	ret

00000000fffea5e0 <bl31_plat_get_next_image_ep_info>:
    fffea5e0:	7100041f 	cmp	w0, #0x1
    fffea5e4:	b0000062 	adrp	x2, ffff7000 <__RELA_END__+0x880>
    fffea5e8:	b0000061 	adrp	x1, ffff7000 <__RELA_END__+0x880>
    fffea5ec:	9123a040 	add	x0, x2, #0x8e8
    fffea5f0:	91224021 	add	x1, x1, #0x890
    fffea5f4:	9a810000 	csel	x0, x0, x1, eq  // eq = none
    fffea5f8:	d65f03c0 	ret

00000000fffea5fc <bl31_early_platform_setup2>:
    fffea5fc:	a9bd7bfd 	stp	x29, x30, [sp, #-48]!
    fffea600:	910003fd 	mov	x29, sp
    fffea604:	a90153f3 	stp	x19, x20, [sp, #16]
    fffea608:	b0000074 	adrp	x20, ffff7000 <__RELA_END__+0x880>
    fffea60c:	a9025bf5 	stp	x21, x22, [sp, #32]
    fffea610:	9400155a 	bl	fffefb78 <zynqmp_get_uart_clk>
    fffea614:	52984002 	mov	w2, #0xc200                	// #49664
    fffea618:	2a0003e1 	mov	w1, w0
    fffea61c:	72a00022 	movk	w2, #0x1, lsl #16
    fffea620:	d2bfe000 	mov	x0, #0xff000000            	// #4278190080
    fffea624:	9400180f 	bl	ffff0660 <console_init>
    fffea628:	b0000073 	adrp	x19, ffff7000 <__RELA_END__+0x880>
    fffea62c:	9400156e 	bl	fffefbe4 <zynqmp_config_setup>
    fffea630:	d2802020 	mov	x0, #0x101                 	// #257
    fffea634:	f2a00b00 	movk	x0, #0x58, lsl #16
    fffea638:	f9044a80 	str	x0, [x20, #2192]
    fffea63c:	d2802020 	mov	x0, #0x101                 	// #257
    fffea640:	f2a00b00 	movk	x0, #0x58, lsl #16
    fffea644:	f2c00020 	movk	x0, #0x1, lsl #32
    fffea648:	f9047660 	str	x0, [x19, #2280]
    fffea64c:	94001556 	bl	fffefba4 <zynqmp_get_bootmode>
    fffea650:	350001e0 	cbnz	w0, fffea68c <bl31_early_platform_setup2+0x90>
    fffea654:	97ffffd1 	bl	fffea598 <bl31_set_default_config>
    fffea658:	91224294 	add	x20, x20, #0x890
    fffea65c:	9123a273 	add	x19, x19, #0x8e8
    fffea660:	90000040 	adrp	x0, ffff2000 <__TEXT_END__>
    fffea664:	91010c00 	add	x0, x0, #0x43
    fffea668:	f9400681 	ldr	x1, [x20, #8]
    fffea66c:	940011ba 	bl	fffeed54 <tf_log>
    fffea670:	f9400661 	ldr	x1, [x19, #8]
    fffea674:	90000040 	adrp	x0, ffff2000 <__TEXT_END__>
    fffea678:	a94153f3 	ldp	x19, x20, [sp, #16]
    fffea67c:	91018000 	add	x0, x0, #0x60
    fffea680:	a9425bf5 	ldp	x21, x22, [sp, #32]
    fffea684:	a8c37bfd 	ldp	x29, x30, [sp], #48
    fffea688:	140011b3 	b	fffeed54 <tf_log>
    fffea68c:	91224295 	add	x21, x20, #0x890
    fffea690:	9123a276 	add	x22, x19, #0x8e8
    fffea694:	aa1603e1 	mov	x1, x22
    fffea698:	aa1503e0 	mov	x0, x21
    fffea69c:	940000c4 	bl	fffea9ac <fsbl_atf_handover>
    fffea6a0:	7100041f 	cmp	w0, #0x1
    fffea6a4:	54fffd80 	b.eq	fffea654 <bl31_early_platform_setup2+0x58>  // b.none
    fffea6a8:	34fffd80 	cbz	w0, fffea658 <bl31_early_platform_setup2+0x5c>
    fffea6ac:	940017f5 	bl	ffff0680 <console_flush>
    fffea6b0:	9400172b 	bl	ffff035c <do_panic>

00000000fffea6b4 <bl31_platform_setup>:
    fffea6b4:	a9bf7bfd 	stp	x29, x30, [sp, #-16]!
    fffea6b8:	910003fd 	mov	x29, sp
    fffea6bc:	9400149c 	bl	fffef92c <plat_arm_gic_driver_init>
    fffea6c0:	a8c17bfd 	ldp	x29, x30, [sp], #16
    fffea6c4:	1400149d 	b	fffef938 <plat_arm_gic_init>

00000000fffea6c8 <bl31_plat_runtime_setup>:
    fffea6c8:	d65f03c0 	ret

00000000fffea6cc <bl31_plat_arch_setup>:
    fffea6cc:	a9b57bfd 	stp	x29, x30, [sp, #-176]!
    fffea6d0:	910003fd 	mov	x29, sp
    fffea6d4:	94001484 	bl	fffef8e4 <plat_arm_interconnect_init>
    fffea6d8:	94001488 	bl	fffef8f8 <plat_arm_interconnect_enter_coherency>
    fffea6dc:	d2801082 	mov	x2, #0x84                  	// #132
    fffea6e0:	52800001 	mov	w1, #0x0                   	// #0
    fffea6e4:	9100b3a0 	add	x0, x29, #0x2c
    fffea6e8:	94001837 	bl	ffff07c4 <memset>
    fffea6ec:	d2940001 	mov	x1, #0xa000                	// #40960
    fffea6f0:	b00000a0 	adrp	x0, fffff000 <__BL31_END__>
    fffea6f4:	91000000 	add	x0, x0, #0x0
    fffea6f8:	f2bfffc1 	movk	x1, #0xfffe, lsl #16
    fffea6fc:	cb010000 	sub	x0, x0, x1
    fffea700:	f90013a0 	str	x0, [x29, #32]
    fffea704:	52800140 	mov	w0, #0xa                   	// #10
    fffea708:	b9002ba0 	str	w0, [x29, #40]
    fffea70c:	90000000 	adrp	x0, fffea000 <bl31_entrypoint>
    fffea710:	a90107a1 	stp	x1, x1, [x29, #16]
    fffea714:	91000001 	add	x1, x0, #0x0
    fffea718:	90000040 	adrp	x0, ffff2000 <__TEXT_END__>
    fffea71c:	91000000 	add	x0, x0, #0x0
    fffea720:	a90307a1 	stp	x1, x1, [x29, #48]
    fffea724:	cb010000 	sub	x0, x0, x1
    fffea728:	f90023a0 	str	x0, [x29, #64]
    fffea72c:	52800040 	mov	w0, #0x2                   	// #2
    fffea730:	b9004ba0 	str	w0, [x29, #72]
    fffea734:	90000040 	adrp	x0, ffff2000 <__TEXT_END__>
    fffea738:	91000001 	add	x1, x0, #0x0
    fffea73c:	b0000040 	adrp	x0, ffff3000 <__RODATA_END__>
    fffea740:	91000000 	add	x0, x0, #0x0
    fffea744:	cb010000 	sub	x0, x0, x1
    fffea748:	f90033a0 	str	x0, [x29, #96]
    fffea74c:	52800440 	mov	w0, #0x22                  	// #34
    fffea750:	b9006ba0 	str	w0, [x29, #104]
    fffea754:	900000a0 	adrp	x0, ffffe000 <pm_secure_lock>
    fffea758:	a90507a1 	stp	x1, x1, [x29, #80]
    fffea75c:	91000001 	add	x1, x0, #0x0
    fffea760:	b00000a0 	adrp	x0, fffff000 <__BL31_END__>
    fffea764:	91000000 	add	x0, x0, #0x0
    fffea768:	a90707a1 	stp	x1, x1, [x29, #112]
    fffea76c:	cb010000 	sub	x0, x0, x1
    fffea770:	f90043a0 	str	x0, [x29, #128]
    fffea774:	52800100 	mov	w0, #0x8                   	// #8
    fffea778:	b9008ba0 	str	w0, [x29, #136]
    fffea77c:	94001469 	bl	fffef920 <plat_arm_get_mmap>
    fffea780:	aa0003e1 	mov	x1, x0
    fffea784:	910043a0 	add	x0, x29, #0x10
    fffea788:	94001199 	bl	fffeedec <setup_page_tables>
    fffea78c:	52800000 	mov	w0, #0x0                   	// #0
    fffea790:	940012d1 	bl	fffef2d4 <enable_mmu_el3>
    fffea794:	a8cb7bfd 	ldp	x29, x30, [sp], #176
    fffea798:	d65f03c0 	ret

00000000fffea79c <zynqmp_cpu_standby>:
    fffea79c:	d5033f9f 	dsb	sy
    fffea7a0:	d503207f 	wfi
    fffea7a4:	d65f03c0 	ret

00000000fffea7a8 <zynqmp_validate_power_state>:
    fffea7a8:	f262001f 	tst	x0, #0x40000000
    fffea7ac:	52800042 	mov	w2, #0x2                   	// #2
    fffea7b0:	1a9f1442 	csinc	w2, w2, wzr, ne  // ne = any
    fffea7b4:	f2406c1f 	tst	x0, #0xfffffff
    fffea7b8:	39000022 	strb	w2, [x1]
    fffea7bc:	12800020 	mov	w0, #0xfffffffe            	// #-2
    fffea7c0:	1a9f1000 	csel	w0, w0, wzr, ne  // ne = any
    fffea7c4:	d65f03c0 	ret

00000000fffea7c8 <zynqmp_validate_ns_entrypoint>:
    fffea7c8:	52800000 	mov	w0, #0x0                   	// #0
    fffea7cc:	d65f03c0 	ret

00000000fffea7d0 <zynqmp_get_sys_suspend_power_state>:
    fffea7d0:	52800041 	mov	w1, #0x2                   	// #2
    fffea7d4:	39000001 	strb	w1, [x0]
    fffea7d8:	39000401 	strb	w1, [x0, #1]
    fffea7dc:	d65f03c0 	ret

00000000fffea7e0 <zynqmp_system_reset>:
    fffea7e0:	a9bf7bfd 	stp	x29, x30, [sp, #-16]!
    fffea7e4:	910003fd 	mov	x29, sp
    fffea7e8:	94001447 	bl	fffef904 <plat_arm_interconnect_exit_coherency>
    fffea7ec:	9400023c 	bl	fffeb0dc <pm_get_shutdown_scope>
    fffea7f0:	2a0003e1 	mov	w1, w0
    fffea7f4:	52800020 	mov	w0, #0x1                   	// #1
    fffea7f8:	940002ad 	bl	fffeb2ac <pm_system_shutdown>
    fffea7fc:	d503207f 	wfi
    fffea800:	17ffffff 	b	fffea7fc <zynqmp_system_reset+0x1c>

00000000fffea804 <zynqmp_system_off>:
    fffea804:	a9bf7bfd 	stp	x29, x30, [sp, #-16]!
    fffea808:	910003fd 	mov	x29, sp
    fffea80c:	9400143e 	bl	fffef904 <plat_arm_interconnect_exit_coherency>
    fffea810:	94000233 	bl	fffeb0dc <pm_get_shutdown_scope>
    fffea814:	2a0003e1 	mov	w1, w0
    fffea818:	52800000 	mov	w0, #0x0                   	// #0
    fffea81c:	940002a4 	bl	fffeb2ac <pm_system_shutdown>
    fffea820:	d503207f 	wfi
    fffea824:	17ffffff 	b	fffea820 <zynqmp_system_off+0x1c>

00000000fffea828 <zynqmp_pwr_domain_suspend_finish>:
    fffea828:	a9be7bfd 	stp	x29, x30, [sp, #-32]!
    fffea82c:	910003fd 	mov	x29, sp
    fffea830:	f9000bf3 	str	x19, [sp, #16]
    fffea834:	aa0003f3 	mov	x19, x0
    fffea838:	940017a5 	bl	ffff06cc <plat_my_core_pos>
    fffea83c:	94000970 	bl	fffecdfc <pm_get_proc>
    fffea840:	940009d1 	bl	fffecf84 <pm_client_wakeup>
    fffea844:	9400142d 	bl	fffef8f8 <plat_arm_interconnect_enter_coherency>
    fffea848:	39400660 	ldrb	w0, [x19, #1]
    fffea84c:	7100041f 	cmp	w0, #0x1
    fffea850:	54000089 	b.ls	fffea860 <zynqmp_pwr_domain_suspend_finish+0x38>  // b.plast
    fffea854:	f9400bf3 	ldr	x19, [sp, #16]
    fffea858:	a8c27bfd 	ldp	x29, x30, [sp], #32
    fffea85c:	14001437 	b	fffef938 <plat_arm_gic_init>
    fffea860:	94001340 	bl	fffef560 <gicv2_cpuif_enable>
    fffea864:	f9400bf3 	ldr	x19, [sp, #16]
    fffea868:	a8c27bfd 	ldp	x29, x30, [sp], #32
    fffea86c:	1400134d 	b	fffef5a0 <gicv2_pcpu_distif_init>

00000000fffea870 <zynqmp_pwr_domain_on_finish>:
    fffea870:	a9bf7bfd 	stp	x29, x30, [sp, #-16]!
    fffea874:	910003fd 	mov	x29, sp
    fffea878:	94001438 	bl	fffef958 <plat_arm_gic_pcpu_init>
    fffea87c:	a8c17bfd 	ldp	x29, x30, [sp], #16
    fffea880:	14001338 	b	fffef560 <gicv2_cpuif_enable>

00000000fffea884 <zynqmp_pwr_domain_suspend>:
    fffea884:	a9be7bfd 	stp	x29, x30, [sp, #-32]!
    fffea888:	910003fd 	mov	x29, sp
    fffea88c:	f9000bf3 	str	x19, [sp, #16]
    fffea890:	aa0003f3 	mov	x19, x0
    fffea894:	9400178e 	bl	ffff06cc <plat_my_core_pos>
    fffea898:	94000959 	bl	fffecdfc <pm_get_proc>
    fffea89c:	b9400000 	ldr	w0, [x0]
    fffea8a0:	39400661 	ldrb	w1, [x19, #1]
    fffea8a4:	528001e2 	mov	w2, #0xf                   	// #15
    fffea8a8:	7100043f 	cmp	w1, #0x1
    fffea8ac:	d0000061 	adrp	x1, ffff8000 <psci_ns_context+0x640>
    fffea8b0:	1a9f8042 	csel	w2, w2, wzr, hi  // hi = pmore
    fffea8b4:	f9421423 	ldr	x3, [x1, #1064]
    fffea8b8:	12800001 	mov	w1, #0xffffffff            	// #-1
    fffea8bc:	9400020b 	bl	fffeb0e8 <pm_self_suspend>
    fffea8c0:	39400660 	ldrb	w0, [x19, #1]
    fffea8c4:	7100041f 	cmp	w0, #0x1
    fffea8c8:	54000089 	b.ls	fffea8d8 <zynqmp_pwr_domain_suspend+0x54>  // b.plast
    fffea8cc:	f9400bf3 	ldr	x19, [sp, #16]
    fffea8d0:	a8c27bfd 	ldp	x29, x30, [sp], #32
    fffea8d4:	1400140c 	b	fffef904 <plat_arm_interconnect_exit_coherency>
    fffea8d8:	f9400bf3 	ldr	x19, [sp, #16]
    fffea8dc:	a8c27bfd 	ldp	x29, x30, [sp], #32
    fffea8e0:	d65f03c0 	ret

00000000fffea8e4 <zynqmp_pwr_domain_off>:
    fffea8e4:	a9be7bfd 	stp	x29, x30, [sp, #-32]!
    fffea8e8:	910003fd 	mov	x29, sp
    fffea8ec:	f9000bf3 	str	x19, [sp, #16]
    fffea8f0:	94001777 	bl	ffff06cc <plat_my_core_pos>
    fffea8f4:	94000942 	bl	fffecdfc <pm_get_proc>
    fffea8f8:	aa0003f3 	mov	x19, x0
    fffea8fc:	94001321 	bl	fffef580 <gicv2_cpuif_disable>
    fffea900:	d2800003 	mov	x3, #0x0                   	// #0
    fffea904:	52800002 	mov	w2, #0x0                   	// #0
    fffea908:	b9400260 	ldr	w0, [x19]
    fffea90c:	12800001 	mov	w1, #0xffffffff            	// #-1
    fffea910:	f9400bf3 	ldr	x19, [sp, #16]
    fffea914:	a8c27bfd 	ldp	x29, x30, [sp], #32
    fffea918:	140001f4 	b	fffeb0e8 <pm_self_suspend>

00000000fffea91c <zynqmp_pwr_domain_on>:
    fffea91c:	a9be7bfd 	stp	x29, x30, [sp, #-32]!
    fffea920:	910003fd 	mov	x29, sp
    fffea924:	f9000bf3 	str	x19, [sp, #16]
    fffea928:	94000019 	bl	fffea98c <plat_core_pos_by_mpidr>
    fffea92c:	3100041f 	cmn	w0, #0x1
    fffea930:	540001c0 	b.eq	fffea968 <zynqmp_pwr_domain_on+0x4c>  // b.none
    fffea934:	94000932 	bl	fffecdfc <pm_get_proc>
    fffea938:	aa0003f3 	mov	x19, x0
    fffea93c:	94000992 	bl	fffecf84 <pm_client_wakeup>
    fffea940:	d0000060 	adrp	x0, ffff8000 <psci_ns_context+0x640>
    fffea944:	52800043 	mov	w3, #0x2                   	// #2
    fffea948:	52800021 	mov	w1, #0x1                   	// #1
    fffea94c:	f9421402 	ldr	x2, [x0, #1064]
    fffea950:	b9400260 	ldr	w0, [x19]
    fffea954:	94000213 	bl	fffeb1a0 <pm_req_wakeup>
    fffea958:	52800000 	mov	w0, #0x0                   	// #0
    fffea95c:	f9400bf3 	ldr	x19, [sp, #16]
    fffea960:	a8c27bfd 	ldp	x29, x30, [sp], #32
    fffea964:	d65f03c0 	ret
    fffea968:	128000a0 	mov	w0, #0xfffffffa            	// #-6
    fffea96c:	17fffffc 	b	fffea95c <zynqmp_pwr_domain_on+0x40>

00000000fffea970 <plat_setup_psci_ops>:
    fffea970:	d0000062 	adrp	x2, ffff8000 <psci_ns_context+0x640>
    fffea974:	f9021440 	str	x0, [x2, #1064]
    fffea978:	90000040 	adrp	x0, ffff2000 <__TEXT_END__>
    fffea97c:	91022000 	add	x0, x0, #0x88
    fffea980:	f9000020 	str	x0, [x1]
    fffea984:	52800000 	mov	w0, #0x0                   	// #0
    fffea988:	d65f03c0 	ret

00000000fffea98c <plat_core_pos_by_mpidr>:
    fffea98c:	f2781c1f 	tst	x0, #0xff00
    fffea990:	540000a1 	b.ne	fffea9a4 <plat_core_pos_by_mpidr+0x18>  // b.any
    fffea994:	92401c01 	and	x1, x0, #0xff
    fffea998:	f1000c3f 	cmp	x1, #0x3
    fffea99c:	54000048 	b.hi	fffea9a4 <plat_core_pos_by_mpidr+0x18>  // b.pmore
    fffea9a0:	1400174d 	b	ffff06d4 <zynqmp_calc_core_pos>
    fffea9a4:	12800000 	mov	w0, #0xffffffff            	// #-1
    fffea9a8:	d65f03c0 	ret

00000000fffea9ac <fsbl_atf_handover>:
    fffea9ac:	d2800902 	mov	x2, #0x48                  	// #72
    fffea9b0:	f2bffb02 	movk	x2, #0xffd8, lsl #16
    fffea9b4:	b9400042 	ldr	w2, [x2]
    fffea9b8:	2a0203e2 	mov	w2, w2
    fffea9bc:	b4000a42 	cbz	x2, fffeab04 <fsbl_atf_handover+0x158>
    fffea9c0:	a9bf7bfd 	stp	x29, x30, [sp, #-16]!
    fffea9c4:	aa0103e4 	mov	x4, x1
    fffea9c8:	52898b01 	mov	w1, #0x4c58                	// #19544
    fffea9cc:	910003fd 	mov	x29, sp
    fffea9d0:	b9400043 	ldr	w3, [x2]
    fffea9d4:	72ab09c1 	movk	w1, #0x584e, lsl #16
    fffea9d8:	6b01007f 	cmp	w3, w1
    fffea9dc:	54000100 	b.eq	fffea9fc <fsbl_atf_handover+0x50>  // b.none
    fffea9e0:	aa0203e1 	mov	x1, x2
    fffea9e4:	90000040 	adrp	x0, ffff2000 <__TEXT_END__>
    fffea9e8:	9104a000 	add	x0, x0, #0x128
    fffea9ec:	940010da 	bl	fffeed54 <tf_log>
    fffea9f0:	52800040 	mov	w0, #0x2                   	// #2
    fffea9f4:	a8c17bfd 	ldp	x29, x30, [sp], #16
    fffea9f8:	d65f03c0 	ret
    fffea9fc:	b9400441 	ldr	w1, [x2, #4]
    fffeaa00:	7100203f 	cmp	w1, #0x8
    fffeaa04:	540001e8 	b.hi	fffeaa40 <fsbl_atf_handover+0x94>  // b.pmore
    fffeaa08:	91002043 	add	x3, x2, #0x8
    fffeaa0c:	2a0103e1 	mov	w1, w1
    fffeaa10:	d2800007 	mov	x7, #0x0                   	// #0
    fffeaa14:	5280002a 	mov	w10, #0x1                   	// #1
    fffeaa18:	5280782b 	mov	w11, #0x3c1                 	// #961
    fffeaa1c:	528001ec 	mov	w12, #0xf                   	// #15
    fffeaa20:	5280014d 	mov	w13, #0xa                   	// #10
    fffeaa24:	52803a0e 	mov	w14, #0x1d0                 	// #464
    fffeaa28:	528078af 	mov	w15, #0x3c5                 	// #965
    fffeaa2c:	52803a70 	mov	w16, #0x1d3                 	// #467
    fffeaa30:	eb0100ff 	cmp	x7, x1
    fffeaa34:	54000123 	b.cc	fffeaa58 <fsbl_atf_handover+0xac>  // b.lo, b.ul, b.last
    fffeaa38:	52800000 	mov	w0, #0x0                   	// #0
    fffeaa3c:	17ffffee 	b	fffea9f4 <fsbl_atf_handover+0x48>
    fffeaa40:	52800102 	mov	w2, #0x8                   	// #8
    fffeaa44:	90000040 	adrp	x0, ffff2000 <__TEXT_END__>
    fffeaa48:	91055800 	add	x0, x0, #0x156
    fffeaa4c:	940010c2 	bl	fffeed54 <tf_log>
    fffeaa50:	52800060 	mov	w0, #0x3                   	// #3
    fffeaa54:	17ffffe8 	b	fffea9f4 <fsbl_atf_handover+0x48>
    fffeaa58:	f9400462 	ldr	x2, [x3, #8]
    fffeaa5c:	f27b045f 	tst	x2, #0x60
    fffeaa60:	54000301 	b.ne	fffeaac0 <fsbl_atf_handover+0x114>  // b.any
    fffeaa64:	d3431045 	ubfx	x5, x2, #3, #2
    fffeaa68:	710000bf 	cmp	w5, #0x0
    fffeaa6c:	7a4318a4 	ccmp	w5, #0x3, #0x4, ne  // ne = any
    fffeaa70:	54000280 	b.eq	fffeaac0 <fsbl_atf_handover+0x114>  // b.none
    fffeaa74:	d3420849 	ubfx	x9, x2, #2, #1
    fffeaa78:	710008bf 	cmp	w5, #0x2
    fffeaa7c:	1a9f0128 	csel	w8, w9, wzr, eq  // eq = none
    fffeaa80:	35000208 	cbnz	w8, fffeaac0 <fsbl_atf_handover+0x114>
    fffeaa84:	92400048 	and	x8, x2, #0x1
    fffeaa88:	53010442 	ubfx	w2, w2, #1, #1
    fffeaa8c:	b4000249 	cbz	x9, fffeaad4 <fsbl_atf_handover+0x128>
    fffeaa90:	b40001e8 	cbz	x8, fffeaacc <fsbl_atf_handover+0x120>
    fffeaa94:	2a022605 	orr	w5, w16, w2, lsl #9
    fffeaa98:	b9001005 	str	w5, [x0, #16]
    fffeaa9c:	aa0003e5 	mov	x5, x0
    fffeaaa0:	f9400066 	ldr	x6, [x3]
    fffeaaa4:	7100005f 	cmp	w2, #0x0
    fffeaaa8:	f90004a6 	str	x6, [x5, #8]
    fffeaaac:	b94004a6 	ldr	w6, [x5, #4]
    fffeaab0:	121e78c8 	and	w8, w6, #0xfffffffd
    fffeaab4:	321f00c6 	orr	w6, w6, #0x2
    fffeaab8:	1a8810c6 	csel	w6, w6, w8, ne  // ne = any
    fffeaabc:	b90004a6 	str	w6, [x5, #4]
    fffeaac0:	910004e7 	add	x7, x7, #0x1
    fffeaac4:	91004063 	add	x3, x3, #0x10
    fffeaac8:	17ffffda 	b	fffeaa30 <fsbl_atf_handover+0x84>
    fffeaacc:	b900100f 	str	w15, [x0, #16]
    fffeaad0:	17fffff3 	b	fffeaa9c <fsbl_atf_handover+0xf0>
    fffeaad4:	b4000108 	cbz	x8, fffeaaf4 <fsbl_atf_handover+0x148>
    fffeaad8:	710008bf 	cmp	w5, #0x2
    fffeaadc:	2a0225c5 	orr	w5, w14, w2, lsl #9
    fffeaae0:	1a8d1186 	csel	w6, w12, w13, ne  // ne = any
    fffeaae4:	2a0600a5 	orr	w5, w5, w6
    fffeaae8:	b9001085 	str	w5, [x4, #16]
    fffeaaec:	aa0403e5 	mov	x5, x4
    fffeaaf0:	17ffffec 	b	fffeaaa0 <fsbl_atf_handover+0xf4>
    fffeaaf4:	1a8a00a6 	csel	w6, w5, w10, eq  // eq = none
    fffeaaf8:	2a060966 	orr	w6, w11, w6, lsl #2
    fffeaafc:	b9001086 	str	w6, [x4, #16]
    fffeab00:	17fffffb 	b	fffeaaec <fsbl_atf_handover+0x140>
    fffeab04:	52800020 	mov	w0, #0x1                   	// #1
    fffeab08:	d65f03c0 	ret

00000000fffeab0c <plat_get_power_domain_tree_desc>:
    fffeab0c:	90000040 	adrp	x0, ffff2000 <__TEXT_END__>
    fffeab10:	91063800 	add	x0, x0, #0x18e
    fffeab14:	d65f03c0 	ret

00000000fffeab18 <sip_svc_setup>:
    fffeab18:	1400002b 	b	fffeabc4 <pm_setup>

00000000fffeab1c <sip_svc_smc_handler>:
    fffeab1c:	2a0003e9 	mov	w9, w0
    fffeab20:	aa0603e8 	mov	x8, x6
    fffeab24:	72140c0a 	ands	w10, w0, #0xf000
    fffeab28:	54000041 	b.ne	fffeab30 <sip_svc_smc_handler+0x14>  // b.any
    fffeab2c:	14000044 	b	fffeac3c <pm_smc_handler>
    fffeab30:	7140055f 	cmp	w10, #0x1, lsl #12
    fffeab34:	54000041 	b.ne	fffeab3c <sip_svc_smc_handler+0x20>  // b.any
    fffeab38:	17fffdc1 	b	fffea23c <ipi_smc_handler>
    fffeab3c:	529fe020 	mov	w0, #0xff01                	// #65281
    fffeab40:	72b04000 	movk	w0, #0x8200, lsl #16
    fffeab44:	6b00013f 	cmp	w9, w0
    fffeab48:	54000180 	b.eq	fffeab78 <sip_svc_smc_handler+0x5c>  // b.none
    fffeab4c:	11000800 	add	w0, w0, #0x2
    fffeab50:	6b00013f 	cmp	w9, w0
    fffeab54:	540002a0 	b.eq	fffeaba8 <sip_svc_smc_handler+0x8c>  // b.none
    fffeab58:	529fe000 	mov	w0, #0xff00                	// #65280
    fffeab5c:	72b04000 	movk	w0, #0x8200, lsl #16
    fffeab60:	6b00013f 	cmp	w9, w0
    fffeab64:	d2800700 	mov	x0, #0x38                  	// #56
    fffeab68:	da9f0000 	csinv	x0, x0, xzr, eq  // eq = none
    fffeab6c:	f9000100 	str	x0, [x8]
    fffeab70:	aa0803e0 	mov	x0, x8
    fffeab74:	d65f03c0 	ret
    fffeab78:	d285b040 	mov	x0, #0x2d82                	// #11650
    fffeab7c:	f2b4bc60 	movk	x0, #0xa5e3, lsl #16
    fffeab80:	f9000cc0 	str	x0, [x6, #24]
    fffeab84:	d28374c0 	mov	x0, #0x1ba6                	// #7078
    fffeab88:	f2a4b720 	movk	x0, #0x25b9, lsl #16
    fffeab8c:	f90008c0 	str	x0, [x6, #16]
    fffeab90:	d290c0a0 	mov	x0, #0x8605                	// #34309
    fffeab94:	f2a80460 	movk	x0, #0x4023, lsl #16
    fffeab98:	f90004c0 	str	x0, [x6, #8]
    fffeab9c:	d2936b80 	mov	x0, #0x9b5c                	// #39772
    fffeaba0:	f2a54360 	movk	x0, #0x2a1b, lsl #16
    fffeaba4:	17fffff2 	b	fffeab6c <sip_svc_smc_handler+0x50>
    fffeaba8:	d2800020 	mov	x0, #0x1                   	// #1
    fffeabac:	a90000df 	stp	xzr, x0, [x6]
    fffeabb0:	17fffff0 	b	fffeab70 <sip_svc_smc_handler+0x54>

00000000fffeabb4 <zynqmp_ipi_config_table_init>:
    fffeabb4:	52800161 	mov	w1, #0xb                   	// #11
    fffeabb8:	90000040 	adrp	x0, ffff2000 <__TEXT_END__>
    fffeabbc:	91066000 	add	x0, x0, #0x198
    fffeabc0:	14001378 	b	fffef9a0 <ipi_config_table_init>

00000000fffeabc4 <pm_setup>:
    fffeabc4:	a9be7bfd 	stp	x29, x30, [sp, #-32]!
    fffeabc8:	90000060 	adrp	x0, ffff6000 <ext_clocks+0x18>
    fffeabcc:	910003fd 	mov	x29, sp
    fffeabd0:	f943b000 	ldr	x0, [x0, #1888]
    fffeabd4:	a90153f3 	stp	x19, x20, [sp, #16]
    fffeabd8:	b0000074 	adrp	x20, ffff7000 <__RELA_END__+0x880>
    fffeabdc:	97fffdf3 	bl	fffea3a8 <pm_ipi_init>
    fffeabe0:	2a0003f3 	mov	w19, w0
    fffeabe4:	91251280 	add	x0, x20, #0x944
    fffeabe8:	940001fc 	bl	fffeb3d8 <pm_get_api_version>
    fffeabec:	b9494683 	ldr	w3, [x20, #2372]
    fffeabf0:	7140407f 	cmp	w3, #0x10, lsl #12
    fffeabf4:	54000188 	b.hi	fffeac24 <pm_setup+0x60>  // b.pmore
    fffeabf8:	12003c64 	and	w4, w3, #0xffff
    fffeabfc:	52800022 	mov	w2, #0x1                   	// #1
    fffeac00:	53107c63 	lsr	w3, w3, #16
    fffeac04:	2a0203e1 	mov	w1, w2
    fffeac08:	90000040 	adrp	x0, ffff2000 <__TEXT_END__>
    fffeac0c:	91087000 	add	x0, x0, #0x21c
    fffeac10:	94001051 	bl	fffeed54 <tf_log>
    fffeac14:	128002a0 	mov	w0, #0xffffffea            	// #-22
    fffeac18:	a94153f3 	ldp	x19, x20, [sp, #16]
    fffeac1c:	a8c27bfd 	ldp	x29, x30, [sp], #32
    fffeac20:	d65f03c0 	ret
    fffeac24:	b0000061 	adrp	x1, ffff7000 <__RELA_END__+0x880>
    fffeac28:	7100027f 	cmp	w19, #0x0
    fffeac2c:	1a9f17e2 	cset	w2, eq  // eq = none
    fffeac30:	1a9fd260 	csel	w0, w19, wzr, le
    fffeac34:	b9096022 	str	w2, [x1, #2400]
    fffeac38:	17fffff8 	b	fffeac18 <pm_setup+0x54>

00000000fffeac3c <pm_smc_handler>:
    fffeac3c:	a9bc7bfd 	stp	x29, x30, [sp, #-64]!
    fffeac40:	2a0003e4 	mov	w4, w0
    fffeac44:	aa0103e0 	mov	x0, x1
    fffeac48:	b0000061 	adrp	x1, ffff7000 <__RELA_END__+0x880>
    fffeac4c:	910003fd 	mov	x29, sp
    fffeac50:	b9496021 	ldr	w1, [x1, #2400]
    fffeac54:	a90153f3 	stp	x19, x20, [sp, #16]
    fffeac58:	aa0603f3 	mov	x19, x6
    fffeac5c:	f90013f5 	str	x21, [sp, #32]
    fffeac60:	35000061 	cbnz	w1, fffeac6c <pm_smc_handler+0x30>
    fffeac64:	92800000 	mov	x0, #0xffffffffffffffff    	// #-1
    fffeac68:	140000bb 	b	fffeaf54 <pm_smc_handler+0x318>
    fffeac6c:	12003c84 	and	w4, w4, #0xffff
    fffeac70:	d360fc01 	lsr	x1, x0, #32
    fffeac74:	d360fc43 	lsr	x3, x2, #32
    fffeac78:	7100709f 	cmp	w4, #0x1c
    fffeac7c:	54001ac0 	b.eq	fffeafd4 <pm_smc_handler+0x398>  // b.none
    fffeac80:	540008a8 	b.hi	fffead94 <pm_smc_handler+0x158>  // b.pmore
    fffeac84:	7100389f 	cmp	w4, #0xe
    fffeac88:	54001400 	b.eq	fffeaf08 <pm_smc_handler+0x2cc>  // b.none
    fffeac8c:	54000408 	b.hi	fffead0c <pm_smc_handler+0xd0>  // b.pmore
    fffeac90:	71001c9f 	cmp	w4, #0x7
    fffeac94:	540011e0 	b.eq	fffeaed0 <pm_smc_handler+0x294>  // b.none
    fffeac98:	540001e8 	b.hi	fffeacd4 <pm_smc_handler+0x98>  // b.pmore
    fffeac9c:	71000c9f 	cmp	w4, #0x3
    fffeaca0:	54001620 	b.eq	fffeaf64 <pm_smc_handler+0x328>  // b.none
    fffeaca4:	540000e8 	b.hi	fffeacc0 <pm_smc_handler+0x84>  // b.pmore
    fffeaca8:	7100049f 	cmp	w4, #0x1
    fffeacac:	54001360 	b.eq	fffeaf18 <pm_smc_handler+0x2dc>  // b.none
    fffeacb0:	7100089f 	cmp	w4, #0x2
    fffeacb4:	54fffd81 	b.ne	fffeac64 <pm_smc_handler+0x28>  // b.any
    fffeacb8:	940001d4 	bl	fffeb408 <pm_set_configuration>
    fffeacbc:	14000086 	b	fffeaed4 <pm_smc_handler+0x298>
    fffeacc0:	7100149f 	cmp	w4, #0x5
    fffeacc4:	54001640 	b.eq	fffeaf8c <pm_smc_handler+0x350>  // b.none
    fffeacc8:	540015a9 	b.ls	fffeaf7c <pm_smc_handler+0x340>  // b.plast
    fffeaccc:	94000123 	bl	fffeb158 <pm_req_suspend>
    fffeacd0:	14000081 	b	fffeaed4 <pm_smc_handler+0x298>
    fffeacd4:	7100289f 	cmp	w4, #0xa
    fffeacd8:	54001020 	b.eq	fffeaedc <pm_smc_handler+0x2a0>  // b.none
    fffeacdc:	540000e8 	b.hi	fffeacf8 <pm_smc_handler+0xbc>  // b.pmore
    fffeace0:	7100209f 	cmp	w4, #0x8
    fffeace4:	54001060 	b.eq	fffeaef0 <pm_smc_handler+0x2b4>  // b.none
    fffeace8:	7100249f 	cmp	w4, #0x9
    fffeacec:	54fffbc1 	b.ne	fffeac64 <pm_smc_handler+0x28>  // b.any
    fffeacf0:	94000153 	bl	fffeb23c <pm_abort_suspend>
    fffeacf4:	14000078 	b	fffeaed4 <pm_smc_handler+0x298>
    fffeacf8:	7100309f 	cmp	w4, #0xc
    fffeacfc:	54001020 	b.eq	fffeaf00 <pm_smc_handler+0x2c4>  // b.none
    fffead00:	54000fc9 	b.ls	fffeaef8 <pm_smc_handler+0x2bc>  // b.plast
    fffead04:	9400017b 	bl	fffeb2f0 <pm_req_node>
    fffead08:	14000073 	b	fffeaed4 <pm_smc_handler+0x298>
    fffead0c:	7100549f 	cmp	w4, #0x15
    fffead10:	54001260 	b.eq	fffeaf5c <pm_smc_handler+0x320>  // b.none
    fffead14:	54000228 	b.hi	fffead58 <pm_smc_handler+0x11c>  // b.pmore
    fffead18:	7100449f 	cmp	w4, #0x11
    fffead1c:	540013c0 	b.eq	fffeaf94 <pm_smc_handler+0x358>  // b.none
    fffead20:	540000e8 	b.hi	fffead3c <pm_smc_handler+0x100>  // b.pmore
    fffead24:	71003c9f 	cmp	w4, #0xf
    fffead28:	54000f40 	b.eq	fffeaf10 <pm_smc_handler+0x2d4>  // b.none
    fffead2c:	7100409f 	cmp	w4, #0x10
    fffead30:	54fff9a1 	b.ne	fffeac64 <pm_smc_handler+0x28>  // b.any
    fffead34:	9400019e 	bl	fffeb3ac <pm_set_max_latency>
    fffead38:	14000067 	b	fffeaed4 <pm_smc_handler+0x298>
    fffead3c:	71004c9f 	cmp	w4, #0x13
    fffead40:	54001340 	b.eq	fffeafa8 <pm_smc_handler+0x36c>  // b.none
    fffead44:	540012c9 	b.ls	fffeaf9c <pm_smc_handler+0x360>  // b.plast
    fffead48:	9100c3a1 	add	x1, x29, #0x30
    fffead4c:	2a0003e0 	mov	w0, w0
    fffead50:	9400020b 	bl	fffeb57c <pm_mmio_read>
    fffead54:	1400008c 	b	fffeaf84 <pm_smc_handler+0x348>
    fffead58:	7100609f 	cmp	w4, #0x18
    fffead5c:	54001300 	b.eq	fffeafbc <pm_smc_handler+0x380>  // b.none
    fffead60:	54000108 	b.hi	fffead80 <pm_smc_handler+0x144>  // b.pmore
    fffead64:	7100589f 	cmp	w4, #0x16
    fffead68:	54001260 	b.eq	fffeafb4 <pm_smc_handler+0x378>  // b.none
    fffead6c:	71005c9f 	cmp	w4, #0x17
    fffead70:	54fff7a1 	b.ne	fffeac64 <pm_smc_handler+0x28>  // b.any
    fffead74:	9100c3a0 	add	x0, x29, #0x30
    fffead78:	9400021d 	bl	fffeb5ec <pm_fpga_get_status>
    fffead7c:	14000082 	b	fffeaf84 <pm_smc_handler+0x348>
    fffead80:	7100689f 	cmp	w4, #0x1a
    fffead84:	54001800 	b.eq	fffeb084 <pm_smc_handler+0x448>  // b.none
    fffead88:	54001229 	b.ls	fffeafcc <pm_smc_handler+0x390>  // b.plast
    fffead8c:	94000382 	bl	fffebb94 <pm_rsa_core>
    fffead90:	14000051 	b	fffeaed4 <pm_smc_handler+0x298>
    fffead94:	7100a89f 	cmp	w4, #0x2a
    fffead98:	54001500 	b.eq	fffeb038 <pm_smc_handler+0x3fc>  // b.none
    fffead9c:	54000488 	b.hi	fffeae2c <pm_smc_handler+0x1f0>  // b.pmore
    fffeada0:	71008c9f 	cmp	w4, #0x23
    fffeada4:	540012e0 	b.eq	fffeb000 <pm_smc_handler+0x3c4>  // b.none
    fffeada8:	54000248 	b.hi	fffeadf0 <pm_smc_handler+0x1b4>  // b.pmore
    fffeadac:	71007c9f 	cmp	w4, #0x1f
    fffeadb0:	540011a0 	b.eq	fffeafe4 <pm_smc_handler+0x3a8>  // b.none
    fffeadb4:	54000128 	b.hi	fffeadd8 <pm_smc_handler+0x19c>  // b.pmore
    fffeadb8:	7100749f 	cmp	w4, #0x1d
    fffeadbc:	54001100 	b.eq	fffeafdc <pm_smc_handler+0x3a0>  // b.none
    fffeadc0:	7100789f 	cmp	w4, #0x1e
    fffeadc4:	54fff501 	b.ne	fffeac64 <pm_smc_handler+0x28>  // b.any
    fffeadc8:	910103a1 	add	x1, x29, #0x40
    fffeadcc:	b81f0c3f 	str	wzr, [x1, #-16]!
    fffeadd0:	94000269 	bl	fffeb774 <pm_pinctrl_get_function>
    fffeadd4:	1400006c 	b	fffeaf84 <pm_smc_handler+0x348>
    fffeadd8:	7100849f 	cmp	w4, #0x21
    fffeaddc:	540010e0 	b.eq	fffeaff8 <pm_smc_handler+0x3bc>  // b.none
    fffeade0:	54001069 	b.ls	fffeafec <pm_smc_handler+0x3b0>  // b.plast
    fffeade4:	9100c3a4 	add	x4, x29, #0x30
    fffeade8:	94000298 	bl	fffeb848 <pm_ioctl>
    fffeadec:	14000066 	b	fffeaf84 <pm_smc_handler+0x348>
    fffeadf0:	7100989f 	cmp	w4, #0x26
    fffeadf4:	54001120 	b.eq	fffeb018 <pm_smc_handler+0x3dc>  // b.none
    fffeadf8:	540000e8 	b.hi	fffeae14 <pm_smc_handler+0x1d8>  // b.pmore
    fffeadfc:	7100909f 	cmp	w4, #0x24
    fffeae00:	54001080 	b.eq	fffeb010 <pm_smc_handler+0x3d4>  // b.none
    fffeae04:	7100949f 	cmp	w4, #0x25
    fffeae08:	54fff2e1 	b.ne	fffeac64 <pm_smc_handler+0x28>  // b.any
    fffeae0c:	940002a9 	bl	fffeb8b0 <pm_clock_disable>
    fffeae10:	14000031 	b	fffeaed4 <pm_smc_handler+0x298>
    fffeae14:	7100a09f 	cmp	w4, #0x28
    fffeae18:	540010a0 	b.eq	fffeb02c <pm_smc_handler+0x3f0>  // b.none
    fffeae1c:	54001049 	b.ls	fffeb024 <pm_smc_handler+0x3e8>  // b.plast
    fffeae20:	aa028021 	orr	x1, x1, x2, lsl #32
    fffeae24:	940002d6 	bl	fffeb97c <pm_clock_setrate>
    fffeae28:	1400002b 	b	fffeaed4 <pm_smc_handler+0x298>
    fffeae2c:	7100c49f 	cmp	w4, #0x31
    fffeae30:	54001400 	b.eq	fffeb0b0 <pm_smc_handler+0x474>  // b.none
    fffeae34:	54000208 	b.hi	fffeae74 <pm_smc_handler+0x238>  // b.pmore
    fffeae38:	7100b49f 	cmp	w4, #0x2d
    fffeae3c:	54001280 	b.eq	fffeb08c <pm_smc_handler+0x450>  // b.none
    fffeae40:	54000108 	b.hi	fffeae60 <pm_smc_handler+0x224>  // b.pmore
    fffeae44:	7100ac9f 	cmp	w4, #0x2b
    fffeae48:	54001120 	b.eq	fffeb06c <pm_smc_handler+0x430>  // b.none
    fffeae4c:	7100b09f 	cmp	w4, #0x2c
    fffeae50:	54fff0a1 	b.ne	fffeac64 <pm_smc_handler+0x28>  // b.any
    fffeae54:	9100c3a1 	add	x1, x29, #0x30
    fffeae58:	940002e7 	bl	fffeb9f4 <pm_clock_getparent>
    fffeae5c:	1400004a 	b	fffeaf84 <pm_smc_handler+0x348>
    fffeae60:	7100bc9f 	cmp	w4, #0x2f
    fffeae64:	54001200 	b.eq	fffeb0a4 <pm_smc_handler+0x468>  // b.none
    fffeae68:	54001189 	b.ls	fffeb098 <pm_smc_handler+0x45c>  // b.plast
    fffeae6c:	94000374 	bl	fffebc3c <pm_pll_set_parameter>
    fffeae70:	14000019 	b	fffeaed4 <pm_smc_handler+0x298>
    fffeae74:	7100d49f 	cmp	w4, #0x35
    fffeae78:	540012c0 	b.eq	fffeb0d0 <pm_smc_handler+0x494>  // b.none
    fffeae7c:	540000e8 	b.hi	fffeae98 <pm_smc_handler+0x25c>  // b.pmore
    fffeae80:	7100cc9f 	cmp	w4, #0x33
    fffeae84:	54001200 	b.eq	fffeb0c4 <pm_smc_handler+0x488>  // b.none
    fffeae88:	540011a9 	b.ls	fffeb0bc <pm_smc_handler+0x480>  // b.plast
    fffeae8c:	9100c3a4 	add	x4, x29, #0x30
    fffeae90:	94000421 	bl	fffebf14 <pm_register_access>
    fffeae94:	1400003c 	b	fffeaf84 <pm_smc_handler+0x348>
    fffeae98:	7128089f 	cmp	w4, #0xa02
    fffeae9c:	54000f00 	b.eq	fffeb07c <pm_smc_handler+0x440>  // b.none
    fffeaea0:	71280c9f 	cmp	w4, #0xa03
    fffeaea4:	54000e80 	b.eq	fffeb074 <pm_smc_handler+0x438>  // b.none
    fffeaea8:	7128049f 	cmp	w4, #0xa01
    fffeaeac:	54ffedc1 	b.ne	fffeac64 <pm_smc_handler+0x28>  // b.any
    fffeaeb0:	910103a0 	add	x0, x29, #0x40
    fffeaeb4:	d2800201 	mov	x1, #0x10                  	// #16
    fffeaeb8:	a9bf7c1f 	stp	xzr, xzr, [x0, #-16]!
    fffeaebc:	940001fe 	bl	fffeb6b4 <pm_get_callbackdata>
    fffeaec0:	f9401fa0 	ldr	x0, [x29, #56]
    fffeaec4:	f9000660 	str	x0, [x19, #8]
    fffeaec8:	f9401ba0 	ldr	x0, [x29, #48]
    fffeaecc:	14000022 	b	fffeaf54 <pm_smc_handler+0x318>
    fffeaed0:	94000086 	bl	fffeb0e8 <pm_self_suspend>
    fffeaed4:	2a0003e0 	mov	w0, w0
    fffeaed8:	1400001f 	b	fffeaf54 <pm_smc_handler+0x318>
    fffeaedc:	927f7824 	and	x4, x1, #0xfffffffe
    fffeaee0:	12000021 	and	w1, w1, #0x1
    fffeaee4:	aa028082 	orr	x2, x4, x2, lsl #32
    fffeaee8:	940000ae 	bl	fffeb1a0 <pm_req_wakeup>
    fffeaeec:	17fffffa 	b	fffeaed4 <pm_smc_handler+0x298>
    fffeaef0:	940000c2 	bl	fffeb1f8 <pm_force_powerdown>
    fffeaef4:	17fffff8 	b	fffeaed4 <pm_smc_handler+0x298>
    fffeaef8:	940000e1 	bl	fffeb27c <pm_set_wakeup_source>
    fffeaefc:	17fffff6 	b	fffeaed4 <pm_smc_handler+0x298>
    fffeaf00:	940000eb 	bl	fffeb2ac <pm_system_shutdown>
    fffeaf04:	17fffff4 	b	fffeaed4 <pm_smc_handler+0x298>
    fffeaf08:	9400011e 	bl	fffeb380 <pm_release_node>
    fffeaf0c:	17fffff2 	b	fffeaed4 <pm_smc_handler+0x298>
    fffeaf10:	9400010a 	bl	fffeb338 <pm_set_requirement>
    fffeaf14:	17fffff0 	b	fffeaed4 <pm_smc_handler+0x298>
    fffeaf18:	b0000061 	adrp	x1, ffff7000 <__RELA_END__+0x880>
    fffeaf1c:	aa0103f4 	mov	x20, x1
    fffeaf20:	b9494422 	ldr	w2, [x1, #2372]
    fffeaf24:	7140405f 	cmp	w2, #0x10, lsl #12
    fffeaf28:	54ffec89 	b.ls	fffeacb8 <pm_smc_handler+0x7c>  // b.plast
    fffeaf2c:	b0000075 	adrp	x21, ffff7000 <__RELA_END__+0x880>
    fffeaf30:	b94942a0 	ldr	w0, [x21, #2368]
    fffeaf34:	350000c0 	cbnz	w0, fffeaf4c <pm_smc_handler+0x310>
    fffeaf38:	90000060 	adrp	x0, ffff6000 <ext_clocks+0x18>
    fffeaf3c:	f943b000 	ldr	x0, [x0, #1888]
    fffeaf40:	97fffd85 	bl	fffea554 <pm_ipi_irq_enable>
    fffeaf44:	52800020 	mov	w0, #0x1                   	// #1
    fffeaf48:	b90942a0 	str	w0, [x21, #2368]
    fffeaf4c:	b9494680 	ldr	w0, [x20, #2372]
    fffeaf50:	d3607c00 	lsl	x0, x0, #32
    fffeaf54:	f9000260 	str	x0, [x19]
    fffeaf58:	14000040 	b	fffeb058 <pm_smc_handler+0x41c>
    fffeaf5c:	9400012d 	bl	fffeb410 <pm_init_finalize>
    fffeaf60:	17ffffdd 	b	fffeaed4 <pm_smc_handler+0x298>
    fffeaf64:	9100c3a1 	add	x1, x29, #0x30
    fffeaf68:	94000136 	bl	fffeb440 <pm_get_node_status>
    fffeaf6c:	294687a2 	ldp	w2, w1, [x29, #52]
    fffeaf70:	aa018041 	orr	x1, x2, x1, lsl #32
    fffeaf74:	f9000661 	str	x1, [x19, #8]
    fffeaf78:	14000003 	b	fffeaf84 <pm_smc_handler+0x348>
    fffeaf7c:	9100c3a2 	add	x2, x29, #0x30
    fffeaf80:	9400014c 	bl	fffeb4b0 <pm_get_op_characteristic>
    fffeaf84:	b94033a1 	ldr	w1, [x29, #48]
    fffeaf88:	14000031 	b	fffeb04c <pm_smc_handler+0x410>
    fffeaf8c:	9400013b 	bl	fffeb478 <pm_register_notifier>
    fffeaf90:	17ffffd1 	b	fffeaed4 <pm_smc_handler+0x298>
    fffeaf94:	94000153 	bl	fffeb4e0 <pm_reset_assert>
    fffeaf98:	17ffffcf 	b	fffeaed4 <pm_smc_handler+0x298>
    fffeaf9c:	9100c3a1 	add	x1, x29, #0x30
    fffeafa0:	9400015b 	bl	fffeb50c <pm_reset_get_status>
    fffeafa4:	17fffff8 	b	fffeaf84 <pm_smc_handler+0x348>
    fffeafa8:	2a0003e0 	mov	w0, w0
    fffeafac:	94000166 	bl	fffeb544 <pm_mmio_write>
    fffeafb0:	17ffffc9 	b	fffeaed4 <pm_smc_handler+0x298>
    fffeafb4:	94000180 	bl	fffeb5b4 <pm_fpga_load>
    fffeafb8:	17ffffc7 	b	fffeaed4 <pm_smc_handler+0x298>
    fffeafbc:	9100c3a0 	add	x0, x29, #0x30
    fffeafc0:	94000197 	bl	fffeb61c <pm_get_chipid>
    fffeafc4:	b94037a1 	ldr	w1, [x29, #52]
    fffeafc8:	17ffffeb 	b	fffeaf74 <pm_smc_handler+0x338>
    fffeafcc:	940001a0 	bl	fffeb64c <pm_secure_rsaaes>
    fffeafd0:	17ffffc1 	b	fffeaed4 <pm_smc_handler+0x298>
    fffeafd4:	940001ce 	bl	fffeb70c <pm_pinctrl_request>
    fffeafd8:	17ffffbf 	b	fffeaed4 <pm_smc_handler+0x298>
    fffeafdc:	940001d9 	bl	fffeb740 <pm_pinctrl_release>
    fffeafe0:	17ffffbd 	b	fffeaed4 <pm_smc_handler+0x298>
    fffeafe4:	940001f2 	bl	fffeb7ac <pm_pinctrl_set_function>
    fffeafe8:	17ffffbb 	b	fffeaed4 <pm_smc_handler+0x298>
    fffeafec:	9100c3a2 	add	x2, x29, #0x30
    fffeaff0:	940001fc 	bl	fffeb7e0 <pm_pinctrl_get_config>
    fffeaff4:	17ffffe4 	b	fffeaf84 <pm_smc_handler+0x348>
    fffeaff8:	94000206 	bl	fffeb810 <pm_pinctrl_set_config>
    fffeaffc:	17ffffb6 	b	fffeaed4 <pm_smc_handler+0x298>
    fffeb000:	910103a4 	add	x4, x29, #0x40
    fffeb004:	a9bf7c9f 	stp	xzr, xzr, [x4, #-16]!
    fffeb008:	94000295 	bl	fffeba5c <pm_query_data>
    fffeb00c:	17ffffad 	b	fffeaec0 <pm_smc_handler+0x284>
    fffeb010:	9400020f 	bl	fffeb84c <pm_clock_enable>
    fffeb014:	17ffffb0 	b	fffeaed4 <pm_smc_handler+0x298>
    fffeb018:	9100c3a1 	add	x1, x29, #0x30
    fffeb01c:	9400023e 	bl	fffeb914 <pm_clock_getstate>
    fffeb020:	17ffffd9 	b	fffeaf84 <pm_smc_handler+0x348>
    fffeb024:	9400031b 	bl	fffebc90 <pm_clock_setdivider>
    fffeb028:	17ffffab 	b	fffeaed4 <pm_smc_handler+0x298>
    fffeb02c:	9100c3a1 	add	x1, x29, #0x30
    fffeb030:	94000355 	bl	fffebd84 <pm_clock_getdivider>
    fffeb034:	17ffffd4 	b	fffeaf84 <pm_smc_handler+0x348>
    fffeb038:	9100c3a1 	add	x1, x29, #0x30
    fffeb03c:	94000252 	bl	fffeb984 <pm_clock_getrate>
    fffeb040:	f9401ba1 	ldr	x1, [x29, #48]
    fffeb044:	d360fc22 	lsr	x2, x1, #32
    fffeb048:	f9000662 	str	x2, [x19, #8]
    fffeb04c:	2a0003e0 	mov	w0, w0
    fffeb050:	aa018001 	orr	x1, x0, x1, lsl #32
    fffeb054:	f9000261 	str	x1, [x19]
    fffeb058:	aa1303e0 	mov	x0, x19
    fffeb05c:	f94013f5 	ldr	x21, [sp, #32]
    fffeb060:	a94153f3 	ldp	x19, x20, [sp, #16]
    fffeb064:	a8c47bfd 	ldp	x29, x30, [sp], #64
    fffeb068:	d65f03c0 	ret
    fffeb06c:	94000248 	bl	fffeb98c <pm_clock_setparent>
    fffeb070:	17ffff99 	b	fffeaed4 <pm_smc_handler+0x298>
    fffeb074:	d2e00020 	mov	x0, #0x1000000000000       	// #281474976710656
    fffeb078:	17ffffb7 	b	fffeaf54 <pm_smc_handler+0x318>
    fffeb07c:	940007d9 	bl	fffecfe0 <pm_set_suspend_mode>
    fffeb080:	17ffff95 	b	fffeaed4 <pm_smc_handler+0x298>
    fffeb084:	940002b6 	bl	fffebb5c <pm_sha_hash>
    fffeb088:	17ffff93 	b	fffeaed4 <pm_smc_handler+0x298>
    fffeb08c:	9100c3a4 	add	x4, x29, #0x30
    fffeb090:	940002cf 	bl	fffebbcc <pm_secure_image>
    fffeb094:	17ffffcc 	b	fffeafc4 <pm_smc_handler+0x388>
    fffeb098:	9100c3a4 	add	x4, x29, #0x30
    fffeb09c:	940002da 	bl	fffebc04 <pm_fpga_read>
    fffeb0a0:	17ffffb9 	b	fffeaf84 <pm_smc_handler+0x348>
    fffeb0a4:	9100c3a2 	add	x2, x29, #0x30
    fffeb0a8:	94000177 	bl	fffeb684 <pm_aes_engine>
    fffeb0ac:	17ffffb6 	b	fffeaf84 <pm_smc_handler+0x348>
    fffeb0b0:	9100c3a2 	add	x2, x29, #0x30
    fffeb0b4:	94000321 	bl	fffebd38 <pm_pll_get_parameter>
    fffeb0b8:	17ffffb3 	b	fffeaf84 <pm_smc_handler+0x348>
    fffeb0bc:	94000370 	bl	fffebe7c <pm_pll_set_mode>
    fffeb0c0:	17ffff85 	b	fffeaed4 <pm_smc_handler+0x298>
    fffeb0c4:	9100c3a1 	add	x1, x29, #0x30
    fffeb0c8:	94000381 	bl	fffebecc <pm_pll_get_mode>
    fffeb0cc:	17ffffae 	b	fffeaf84 <pm_smc_handler+0x348>
    fffeb0d0:	9100c3a2 	add	x2, x29, #0x30
    fffeb0d4:	940003af 	bl	fffebf90 <pm_efuse_access>
    fffeb0d8:	17ffffab 	b	fffeaf84 <pm_smc_handler+0x348>

00000000fffeb0dc <pm_get_shutdown_scope>:
    fffeb0dc:	90000040 	adrp	x0, ffff3000 <__RODATA_END__>
    fffeb0e0:	b9400000 	ldr	w0, [x0]
    fffeb0e4:	d65f03c0 	ret

00000000fffeb0e8 <pm_self_suspend>:
    fffeb0e8:	a9bb7bfd 	stp	x29, x30, [sp, #-80]!
    fffeb0ec:	910003fd 	mov	x29, sp
    fffeb0f0:	a90153f3 	stp	x19, x20, [sp, #16]
    fffeb0f4:	2a0203f4 	mov	w20, w2
    fffeb0f8:	a9025bf5 	stp	x21, x22, [sp, #32]
    fffeb0fc:	aa0303f5 	mov	x21, x3
    fffeb100:	2a0103f6 	mov	w22, w1
    fffeb104:	94001572 	bl	ffff06cc <plat_my_core_pos>
    fffeb108:	9400073d 	bl	fffecdfc <pm_get_proc>
    fffeb10c:	aa0003f3 	mov	x19, x0
    fffeb110:	2a1403e1 	mov	w1, w20
    fffeb114:	94000741 	bl	fffece18 <pm_client_suspend>
    fffeb118:	d360fea0 	lsr	x0, x21, #32
    fffeb11c:	290853b6 	stp	w22, w20, [x29, #64]
    fffeb120:	290903b5 	stp	w21, w0, [x29, #72]
    fffeb124:	910143a1 	add	x1, x29, #0x50
    fffeb128:	d2800003 	mov	x3, #0x0                   	// #0
    fffeb12c:	d2800002 	mov	x2, #0x0                   	// #0
    fffeb130:	b9400260 	ldr	w0, [x19]
    fffeb134:	b9003fa0 	str	w0, [x29, #60]
    fffeb138:	528000e0 	mov	w0, #0x7                   	// #7
    fffeb13c:	b81e8c20 	str	w0, [x1, #-24]!
    fffeb140:	aa1303e0 	mov	x0, x19
    fffeb144:	97fffcdc 	bl	fffea4b4 <pm_ipi_send_sync>
    fffeb148:	a94153f3 	ldp	x19, x20, [sp, #16]
    fffeb14c:	a9425bf5 	ldp	x21, x22, [sp, #32]
    fffeb150:	a8c57bfd 	ldp	x29, x30, [sp], #80
    fffeb154:	d65f03c0 	ret

00000000fffeb158 <pm_req_suspend>:
    fffeb158:	a9bd7bfd 	stp	x29, x30, [sp, #-48]!
    fffeb15c:	7100083f 	cmp	w1, #0x2
    fffeb160:	910003fd 	mov	x29, sp
    fffeb164:	290387a0 	stp	w0, w1, [x29, #28]
    fffeb168:	9100c3a1 	add	x1, x29, #0x30
    fffeb16c:	528000c0 	mov	w0, #0x6                   	// #6
    fffeb170:	29048fa2 	stp	w2, w3, [x29, #36]
    fffeb174:	b81e8c20 	str	w0, [x1, #-24]!
    fffeb178:	f0000040 	adrp	x0, ffff6000 <ext_clocks+0x18>
    fffeb17c:	f943b000 	ldr	x0, [x0, #1888]
    fffeb180:	540000c1 	b.ne	fffeb198 <pm_req_suspend+0x40>  // b.any
    fffeb184:	d2800003 	mov	x3, #0x0                   	// #0
    fffeb188:	d2800002 	mov	x2, #0x0                   	// #0
    fffeb18c:	97fffcca 	bl	fffea4b4 <pm_ipi_send_sync>
    fffeb190:	a8c37bfd 	ldp	x29, x30, [sp], #48
    fffeb194:	d65f03c0 	ret
    fffeb198:	97fffca3 	bl	fffea424 <pm_ipi_send>
    fffeb19c:	17fffffd 	b	fffeb190 <pm_req_suspend+0x38>

00000000fffeb1a0 <pm_req_wakeup>:
    fffeb1a0:	a9bd7bfd 	stp	x29, x30, [sp, #-48]!
    fffeb1a4:	7100003f 	cmp	w1, #0x0
    fffeb1a8:	9a9f07e1 	cset	x1, ne  // ne = any
    fffeb1ac:	7100087f 	cmp	w3, #0x2
    fffeb1b0:	910003fd 	mov	x29, sp
    fffeb1b4:	aa020022 	orr	x2, x1, x2
    fffeb1b8:	d360fc41 	lsr	x1, x2, #32
    fffeb1bc:	29048fa1 	stp	w1, w3, [x29, #36]
    fffeb1c0:	9100c3a1 	add	x1, x29, #0x30
    fffeb1c4:	29038ba0 	stp	w0, w2, [x29, #28]
    fffeb1c8:	52800140 	mov	w0, #0xa                   	// #10
    fffeb1cc:	b81e8c20 	str	w0, [x1, #-24]!
    fffeb1d0:	f0000040 	adrp	x0, ffff6000 <ext_clocks+0x18>
    fffeb1d4:	f943b000 	ldr	x0, [x0, #1888]
    fffeb1d8:	540000c1 	b.ne	fffeb1f0 <pm_req_wakeup+0x50>  // b.any
    fffeb1dc:	d2800003 	mov	x3, #0x0                   	// #0
    fffeb1e0:	d2800002 	mov	x2, #0x0                   	// #0
    fffeb1e4:	97fffcb4 	bl	fffea4b4 <pm_ipi_send_sync>
    fffeb1e8:	a8c37bfd 	ldp	x29, x30, [sp], #48
    fffeb1ec:	d65f03c0 	ret
    fffeb1f0:	97fffc8d 	bl	fffea424 <pm_ipi_send>
    fffeb1f4:	17fffffd 	b	fffeb1e8 <pm_req_wakeup+0x48>

00000000fffeb1f8 <pm_force_powerdown>:
    fffeb1f8:	a9bd7bfd 	stp	x29, x30, [sp, #-48]!
    fffeb1fc:	7100083f 	cmp	w1, #0x2
    fffeb200:	910003fd 	mov	x29, sp
    fffeb204:	290387a0 	stp	w0, w1, [x29, #28]
    fffeb208:	9100c3a1 	add	x1, x29, #0x30
    fffeb20c:	52800100 	mov	w0, #0x8                   	// #8
    fffeb210:	b81e8c20 	str	w0, [x1, #-24]!
    fffeb214:	f0000040 	adrp	x0, ffff6000 <ext_clocks+0x18>
    fffeb218:	f943b000 	ldr	x0, [x0, #1888]
    fffeb21c:	540000c1 	b.ne	fffeb234 <pm_force_powerdown+0x3c>  // b.any
    fffeb220:	d2800003 	mov	x3, #0x0                   	// #0
    fffeb224:	d2800002 	mov	x2, #0x0                   	// #0
    fffeb228:	97fffca3 	bl	fffea4b4 <pm_ipi_send_sync>
    fffeb22c:	a8c37bfd 	ldp	x29, x30, [sp], #48
    fffeb230:	d65f03c0 	ret
    fffeb234:	97fffc7c 	bl	fffea424 <pm_ipi_send>
    fffeb238:	17fffffd 	b	fffeb22c <pm_force_powerdown+0x34>

00000000fffeb23c <pm_abort_suspend>:
    fffeb23c:	a9bc7bfd 	stp	x29, x30, [sp, #-64]!
    fffeb240:	910003fd 	mov	x29, sp
    fffeb244:	f9000bf3 	str	x19, [sp, #16]
    fffeb248:	2a0003f3 	mov	w19, w0
    fffeb24c:	9400073a 	bl	fffecf34 <pm_client_abort_suspend>
    fffeb250:	f0000040 	adrp	x0, ffff6000 <ext_clocks+0x18>
    fffeb254:	52800122 	mov	w2, #0x9                   	// #9
    fffeb258:	f943b000 	ldr	x0, [x0, #1888]
    fffeb25c:	b9400001 	ldr	w1, [x0]
    fffeb260:	290587b3 	stp	w19, w1, [x29, #44]
    fffeb264:	910103a1 	add	x1, x29, #0x40
    fffeb268:	b81e8c22 	str	w2, [x1, #-24]!
    fffeb26c:	97fffc6e 	bl	fffea424 <pm_ipi_send>
    fffeb270:	f9400bf3 	ldr	x19, [sp, #16]
    fffeb274:	a8c47bfd 	ldp	x29, x30, [sp], #64
    fffeb278:	d65f03c0 	ret

00000000fffeb27c <pm_set_wakeup_source>:
    fffeb27c:	a9bd7bfd 	stp	x29, x30, [sp, #-48]!
    fffeb280:	910003fd 	mov	x29, sp
    fffeb284:	290387a0 	stp	w0, w1, [x29, #28]
    fffeb288:	9100c3a1 	add	x1, x29, #0x30
    fffeb28c:	52800160 	mov	w0, #0xb                   	// #11
    fffeb290:	b90027a2 	str	w2, [x29, #36]
    fffeb294:	b81e8c20 	str	w0, [x1, #-24]!
    fffeb298:	f0000040 	adrp	x0, ffff6000 <ext_clocks+0x18>
    fffeb29c:	f943b000 	ldr	x0, [x0, #1888]
    fffeb2a0:	97fffc61 	bl	fffea424 <pm_ipi_send>
    fffeb2a4:	a8c37bfd 	ldp	x29, x30, [sp], #48
    fffeb2a8:	d65f03c0 	ret

00000000fffeb2ac <pm_system_shutdown>:
    fffeb2ac:	7100081f 	cmp	w0, #0x2
    fffeb2b0:	540000a1 	b.ne	fffeb2c4 <pm_system_shutdown+0x18>  // b.any
    fffeb2b4:	90000040 	adrp	x0, ffff3000 <__RODATA_END__>
    fffeb2b8:	b9000001 	str	w1, [x0]
    fffeb2bc:	52800000 	mov	w0, #0x0                   	// #0
    fffeb2c0:	d65f03c0 	ret
    fffeb2c4:	a9bd7bfd 	stp	x29, x30, [sp, #-48]!
    fffeb2c8:	910003fd 	mov	x29, sp
    fffeb2cc:	290387a0 	stp	w0, w1, [x29, #28]
    fffeb2d0:	9100c3a1 	add	x1, x29, #0x30
    fffeb2d4:	52800180 	mov	w0, #0xc                   	// #12
    fffeb2d8:	b81e8c20 	str	w0, [x1, #-24]!
    fffeb2dc:	f0000040 	adrp	x0, ffff6000 <ext_clocks+0x18>
    fffeb2e0:	f943b000 	ldr	x0, [x0, #1888]
    fffeb2e4:	97fffc3a 	bl	fffea3cc <pm_ipi_send_non_blocking>
    fffeb2e8:	a8c37bfd 	ldp	x29, x30, [sp], #48
    fffeb2ec:	d65f03c0 	ret

00000000fffeb2f0 <pm_req_node>:
    fffeb2f0:	a9bd7bfd 	stp	x29, x30, [sp, #-48]!
    fffeb2f4:	7100087f 	cmp	w3, #0x2
    fffeb2f8:	910003fd 	mov	x29, sp
    fffeb2fc:	290387a0 	stp	w0, w1, [x29, #28]
    fffeb300:	9100c3a1 	add	x1, x29, #0x30
    fffeb304:	528001a0 	mov	w0, #0xd                   	// #13
    fffeb308:	29048fa2 	stp	w2, w3, [x29, #36]
    fffeb30c:	b81e8c20 	str	w0, [x1, #-24]!
    fffeb310:	f0000040 	adrp	x0, ffff6000 <ext_clocks+0x18>
    fffeb314:	f943b000 	ldr	x0, [x0, #1888]
    fffeb318:	540000c1 	b.ne	fffeb330 <pm_req_node+0x40>  // b.any
    fffeb31c:	d2800003 	mov	x3, #0x0                   	// #0
    fffeb320:	d2800002 	mov	x2, #0x0                   	// #0
    fffeb324:	97fffc64 	bl	fffea4b4 <pm_ipi_send_sync>
    fffeb328:	a8c37bfd 	ldp	x29, x30, [sp], #48
    fffeb32c:	d65f03c0 	ret
    fffeb330:	97fffc3d 	bl	fffea424 <pm_ipi_send>
    fffeb334:	17fffffd 	b	fffeb328 <pm_req_node+0x38>

00000000fffeb338 <pm_set_requirement>:
    fffeb338:	a9bd7bfd 	stp	x29, x30, [sp, #-48]!
    fffeb33c:	7100087f 	cmp	w3, #0x2
    fffeb340:	910003fd 	mov	x29, sp
    fffeb344:	290387a0 	stp	w0, w1, [x29, #28]
    fffeb348:	9100c3a1 	add	x1, x29, #0x30
    fffeb34c:	528001e0 	mov	w0, #0xf                   	// #15
    fffeb350:	29048fa2 	stp	w2, w3, [x29, #36]
    fffeb354:	b81e8c20 	str	w0, [x1, #-24]!
    fffeb358:	f0000040 	adrp	x0, ffff6000 <ext_clocks+0x18>
    fffeb35c:	f943b000 	ldr	x0, [x0, #1888]
    fffeb360:	540000c1 	b.ne	fffeb378 <pm_set_requirement+0x40>  // b.any
    fffeb364:	d2800003 	mov	x3, #0x0                   	// #0
    fffeb368:	d2800002 	mov	x2, #0x0                   	// #0
    fffeb36c:	97fffc52 	bl	fffea4b4 <pm_ipi_send_sync>
    fffeb370:	a8c37bfd 	ldp	x29, x30, [sp], #48
    fffeb374:	d65f03c0 	ret
    fffeb378:	97fffc2b 	bl	fffea424 <pm_ipi_send>
    fffeb37c:	17fffffd 	b	fffeb370 <pm_set_requirement+0x38>

00000000fffeb380 <pm_release_node>:
    fffeb380:	a9bd7bfd 	stp	x29, x30, [sp, #-48]!
    fffeb384:	910003fd 	mov	x29, sp
    fffeb388:	9100c3a1 	add	x1, x29, #0x30
    fffeb38c:	b9001fa0 	str	w0, [x29, #28]
    fffeb390:	528001c0 	mov	w0, #0xe                   	// #14
    fffeb394:	b81e8c20 	str	w0, [x1, #-24]!
    fffeb398:	f0000040 	adrp	x0, ffff6000 <ext_clocks+0x18>
    fffeb39c:	f943b000 	ldr	x0, [x0, #1888]
    fffeb3a0:	97fffc21 	bl	fffea424 <pm_ipi_send>
    fffeb3a4:	a8c37bfd 	ldp	x29, x30, [sp], #48
    fffeb3a8:	d65f03c0 	ret

00000000fffeb3ac <pm_set_max_latency>:
    fffeb3ac:	a9bd7bfd 	stp	x29, x30, [sp, #-48]!
    fffeb3b0:	910003fd 	mov	x29, sp
    fffeb3b4:	290387a0 	stp	w0, w1, [x29, #28]
    fffeb3b8:	9100c3a1 	add	x1, x29, #0x30
    fffeb3bc:	52800200 	mov	w0, #0x10                  	// #16
    fffeb3c0:	b81e8c20 	str	w0, [x1, #-24]!
    fffeb3c4:	f0000040 	adrp	x0, ffff6000 <ext_clocks+0x18>
    fffeb3c8:	f943b000 	ldr	x0, [x0, #1888]
    fffeb3cc:	97fffc16 	bl	fffea424 <pm_ipi_send>
    fffeb3d0:	a8c37bfd 	ldp	x29, x30, [sp], #48
    fffeb3d4:	d65f03c0 	ret

00000000fffeb3d8 <pm_get_api_version>:
    fffeb3d8:	a9bd7bfd 	stp	x29, x30, [sp, #-48]!
    fffeb3dc:	52800022 	mov	w2, #0x1                   	// #1
    fffeb3e0:	d2800023 	mov	x3, #0x1                   	// #1
    fffeb3e4:	910003fd 	mov	x29, sp
    fffeb3e8:	9100c3a1 	add	x1, x29, #0x30
    fffeb3ec:	b81e8c22 	str	w2, [x1, #-24]!
    fffeb3f0:	aa0003e2 	mov	x2, x0
    fffeb3f4:	f0000040 	adrp	x0, ffff6000 <ext_clocks+0x18>
    fffeb3f8:	f943b000 	ldr	x0, [x0, #1888]
    fffeb3fc:	97fffc2e 	bl	fffea4b4 <pm_ipi_send_sync>
    fffeb400:	a8c37bfd 	ldp	x29, x30, [sp], #48
    fffeb404:	d65f03c0 	ret

00000000fffeb408 <pm_set_configuration>:
    fffeb408:	52800080 	mov	w0, #0x4                   	// #4
    fffeb40c:	d65f03c0 	ret

00000000fffeb410 <pm_init_finalize>:
    fffeb410:	a9bd7bfd 	stp	x29, x30, [sp, #-48]!
    fffeb414:	528002a0 	mov	w0, #0x15                  	// #21
    fffeb418:	d2800003 	mov	x3, #0x0                   	// #0
    fffeb41c:	d2800002 	mov	x2, #0x0                   	// #0
    fffeb420:	910003fd 	mov	x29, sp
    fffeb424:	9100c3a1 	add	x1, x29, #0x30
    fffeb428:	b81e8c20 	str	w0, [x1, #-24]!
    fffeb42c:	f0000040 	adrp	x0, ffff6000 <ext_clocks+0x18>
    fffeb430:	f943b000 	ldr	x0, [x0, #1888]
    fffeb434:	97fffc20 	bl	fffea4b4 <pm_ipi_send_sync>
    fffeb438:	a8c37bfd 	ldp	x29, x30, [sp], #48
    fffeb43c:	d65f03c0 	ret

00000000fffeb440 <pm_get_node_status>:
    fffeb440:	a9bd7bfd 	stp	x29, x30, [sp, #-48]!
    fffeb444:	52800062 	mov	w2, #0x3                   	// #3
    fffeb448:	d2800063 	mov	x3, #0x3                   	// #3
    fffeb44c:	910003fd 	mov	x29, sp
    fffeb450:	b9001fa0 	str	w0, [x29, #28]
    fffeb454:	9100c3a0 	add	x0, x29, #0x30
    fffeb458:	b81e8c02 	str	w2, [x0, #-24]!
    fffeb45c:	aa0103e2 	mov	x2, x1
    fffeb460:	aa0003e1 	mov	x1, x0
    fffeb464:	f0000040 	adrp	x0, ffff6000 <ext_clocks+0x18>
    fffeb468:	f943b000 	ldr	x0, [x0, #1888]
    fffeb46c:	97fffc12 	bl	fffea4b4 <pm_ipi_send_sync>
    fffeb470:	a8c37bfd 	ldp	x29, x30, [sp], #48
    fffeb474:	d65f03c0 	ret

00000000fffeb478 <pm_register_notifier>:
    fffeb478:	a9bd7bfd 	stp	x29, x30, [sp, #-48]!
    fffeb47c:	910003fd 	mov	x29, sp
    fffeb480:	290387a0 	stp	w0, w1, [x29, #28]
    fffeb484:	9100c3a1 	add	x1, x29, #0x30
    fffeb488:	528000a0 	mov	w0, #0x5                   	// #5
    fffeb48c:	29048fa2 	stp	w2, w3, [x29, #36]
    fffeb490:	d2800003 	mov	x3, #0x0                   	// #0
    fffeb494:	d2800002 	mov	x2, #0x0                   	// #0
    fffeb498:	b81e8c20 	str	w0, [x1, #-24]!
    fffeb49c:	f0000040 	adrp	x0, ffff6000 <ext_clocks+0x18>
    fffeb4a0:	f943b000 	ldr	x0, [x0, #1888]
    fffeb4a4:	97fffc04 	bl	fffea4b4 <pm_ipi_send_sync>
    fffeb4a8:	a8c37bfd 	ldp	x29, x30, [sp], #48
    fffeb4ac:	d65f03c0 	ret

00000000fffeb4b0 <pm_get_op_characteristic>:
    fffeb4b0:	a9bd7bfd 	stp	x29, x30, [sp, #-48]!
    fffeb4b4:	d2800023 	mov	x3, #0x1                   	// #1
    fffeb4b8:	910003fd 	mov	x29, sp
    fffeb4bc:	290387a0 	stp	w0, w1, [x29, #28]
    fffeb4c0:	9100c3a1 	add	x1, x29, #0x30
    fffeb4c4:	52800080 	mov	w0, #0x4                   	// #4
    fffeb4c8:	b81e8c20 	str	w0, [x1, #-24]!
    fffeb4cc:	f0000040 	adrp	x0, ffff6000 <ext_clocks+0x18>
    fffeb4d0:	f943b000 	ldr	x0, [x0, #1888]
    fffeb4d4:	97fffbf8 	bl	fffea4b4 <pm_ipi_send_sync>
    fffeb4d8:	a8c37bfd 	ldp	x29, x30, [sp], #48
    fffeb4dc:	d65f03c0 	ret

00000000fffeb4e0 <pm_reset_assert>:
    fffeb4e0:	a9bd7bfd 	stp	x29, x30, [sp, #-48]!
    fffeb4e4:	910003fd 	mov	x29, sp
    fffeb4e8:	290387a0 	stp	w0, w1, [x29, #28]
    fffeb4ec:	9100c3a1 	add	x1, x29, #0x30
    fffeb4f0:	52800220 	mov	w0, #0x11                  	// #17
    fffeb4f4:	b81e8c20 	str	w0, [x1, #-24]!
    fffeb4f8:	f0000040 	adrp	x0, ffff6000 <ext_clocks+0x18>
    fffeb4fc:	f943b000 	ldr	x0, [x0, #1888]
    fffeb500:	97fffbc9 	bl	fffea424 <pm_ipi_send>
    fffeb504:	a8c37bfd 	ldp	x29, x30, [sp], #48
    fffeb508:	d65f03c0 	ret

00000000fffeb50c <pm_reset_get_status>:
    fffeb50c:	a9bd7bfd 	stp	x29, x30, [sp, #-48]!
    fffeb510:	52800242 	mov	w2, #0x12                  	// #18
    fffeb514:	d2800023 	mov	x3, #0x1                   	// #1
    fffeb518:	910003fd 	mov	x29, sp
    fffeb51c:	b9001fa0 	str	w0, [x29, #28]
    fffeb520:	9100c3a0 	add	x0, x29, #0x30
    fffeb524:	b81e8c02 	str	w2, [x0, #-24]!
    fffeb528:	aa0103e2 	mov	x2, x1
    fffeb52c:	aa0003e1 	mov	x1, x0
    fffeb530:	f0000040 	adrp	x0, ffff6000 <ext_clocks+0x18>
    fffeb534:	f943b000 	ldr	x0, [x0, #1888]
    fffeb538:	97fffbdf 	bl	fffea4b4 <pm_ipi_send_sync>
    fffeb53c:	a8c37bfd 	ldp	x29, x30, [sp], #48
    fffeb540:	d65f03c0 	ret

00000000fffeb544 <pm_mmio_write>:
    fffeb544:	a9bd7bfd 	stp	x29, x30, [sp, #-48]!
    fffeb548:	d2800003 	mov	x3, #0x0                   	// #0
    fffeb54c:	910003fd 	mov	x29, sp
    fffeb550:	290387a0 	stp	w0, w1, [x29, #28]
    fffeb554:	9100c3a1 	add	x1, x29, #0x30
    fffeb558:	52800260 	mov	w0, #0x13                  	// #19
    fffeb55c:	b90027a2 	str	w2, [x29, #36]
    fffeb560:	d2800002 	mov	x2, #0x0                   	// #0
    fffeb564:	b81e8c20 	str	w0, [x1, #-24]!
    fffeb568:	f0000040 	adrp	x0, ffff6000 <ext_clocks+0x18>
    fffeb56c:	f943b000 	ldr	x0, [x0, #1888]
    fffeb570:	97fffbd1 	bl	fffea4b4 <pm_ipi_send_sync>
    fffeb574:	a8c37bfd 	ldp	x29, x30, [sp], #48
    fffeb578:	d65f03c0 	ret

00000000fffeb57c <pm_mmio_read>:
    fffeb57c:	a9bd7bfd 	stp	x29, x30, [sp, #-48]!
    fffeb580:	52800282 	mov	w2, #0x14                  	// #20
    fffeb584:	d2800023 	mov	x3, #0x1                   	// #1
    fffeb588:	910003fd 	mov	x29, sp
    fffeb58c:	b9001fa0 	str	w0, [x29, #28]
    fffeb590:	9100c3a0 	add	x0, x29, #0x30
    fffeb594:	b81e8c02 	str	w2, [x0, #-24]!
    fffeb598:	aa0103e2 	mov	x2, x1
    fffeb59c:	aa0003e1 	mov	x1, x0
    fffeb5a0:	f0000040 	adrp	x0, ffff6000 <ext_clocks+0x18>
    fffeb5a4:	f943b000 	ldr	x0, [x0, #1888]
    fffeb5a8:	97fffbc3 	bl	fffea4b4 <pm_ipi_send_sync>
    fffeb5ac:	a8c37bfd 	ldp	x29, x30, [sp], #48
    fffeb5b0:	d65f03c0 	ret

00000000fffeb5b4 <pm_fpga_load>:
    fffeb5b4:	a9bd7bfd 	stp	x29, x30, [sp, #-48]!
    fffeb5b8:	910003fd 	mov	x29, sp
    fffeb5bc:	290383a1 	stp	w1, w0, [x29, #28]
    fffeb5c0:	9100c3a1 	add	x1, x29, #0x30
    fffeb5c4:	528002c0 	mov	w0, #0x16                  	// #22
    fffeb5c8:	29048fa2 	stp	w2, w3, [x29, #36]
    fffeb5cc:	d2800003 	mov	x3, #0x0                   	// #0
    fffeb5d0:	d2800002 	mov	x2, #0x0                   	// #0
    fffeb5d4:	b81e8c20 	str	w0, [x1, #-24]!
    fffeb5d8:	f0000040 	adrp	x0, ffff6000 <ext_clocks+0x18>
    fffeb5dc:	f943b000 	ldr	x0, [x0, #1888]
    fffeb5e0:	97fffbb5 	bl	fffea4b4 <pm_ipi_send_sync>
    fffeb5e4:	a8c37bfd 	ldp	x29, x30, [sp], #48
    fffeb5e8:	d65f03c0 	ret

00000000fffeb5ec <pm_fpga_get_status>:
    fffeb5ec:	a9bd7bfd 	stp	x29, x30, [sp, #-48]!
    fffeb5f0:	528002e2 	mov	w2, #0x17                  	// #23
    fffeb5f4:	d2800023 	mov	x3, #0x1                   	// #1
    fffeb5f8:	910003fd 	mov	x29, sp
    fffeb5fc:	9100c3a1 	add	x1, x29, #0x30
    fffeb600:	b81e8c22 	str	w2, [x1, #-24]!
    fffeb604:	aa0003e2 	mov	x2, x0
    fffeb608:	f0000040 	adrp	x0, ffff6000 <ext_clocks+0x18>
    fffeb60c:	f943b000 	ldr	x0, [x0, #1888]
    fffeb610:	97fffba9 	bl	fffea4b4 <pm_ipi_send_sync>
    fffeb614:	a8c37bfd 	ldp	x29, x30, [sp], #48
    fffeb618:	d65f03c0 	ret

00000000fffeb61c <pm_get_chipid>:
    fffeb61c:	a9bd7bfd 	stp	x29, x30, [sp, #-48]!
    fffeb620:	52800302 	mov	w2, #0x18                  	// #24
    fffeb624:	d2800043 	mov	x3, #0x2                   	// #2
    fffeb628:	910003fd 	mov	x29, sp
    fffeb62c:	9100c3a1 	add	x1, x29, #0x30
    fffeb630:	b81e8c22 	str	w2, [x1, #-24]!
    fffeb634:	aa0003e2 	mov	x2, x0
    fffeb638:	f0000040 	adrp	x0, ffff6000 <ext_clocks+0x18>
    fffeb63c:	f943b000 	ldr	x0, [x0, #1888]
    fffeb640:	97fffb9d 	bl	fffea4b4 <pm_ipi_send_sync>
    fffeb644:	a8c37bfd 	ldp	x29, x30, [sp], #48
    fffeb648:	d65f03c0 	ret

00000000fffeb64c <pm_secure_rsaaes>:
    fffeb64c:	a9bd7bfd 	stp	x29, x30, [sp, #-48]!
    fffeb650:	910003fd 	mov	x29, sp
    fffeb654:	290383a1 	stp	w1, w0, [x29, #28]
    fffeb658:	9100c3a1 	add	x1, x29, #0x30
    fffeb65c:	52800320 	mov	w0, #0x19                  	// #25
    fffeb660:	29048fa2 	stp	w2, w3, [x29, #36]
    fffeb664:	d2800003 	mov	x3, #0x0                   	// #0
    fffeb668:	d2800002 	mov	x2, #0x0                   	// #0
    fffeb66c:	b81e8c20 	str	w0, [x1, #-24]!
    fffeb670:	f0000040 	adrp	x0, ffff6000 <ext_clocks+0x18>
    fffeb674:	f943b000 	ldr	x0, [x0, #1888]
    fffeb678:	97fffb8f 	bl	fffea4b4 <pm_ipi_send_sync>
    fffeb67c:	a8c37bfd 	ldp	x29, x30, [sp], #48
    fffeb680:	d65f03c0 	ret

00000000fffeb684 <pm_aes_engine>:
    fffeb684:	a9bd7bfd 	stp	x29, x30, [sp, #-48]!
    fffeb688:	d2800023 	mov	x3, #0x1                   	// #1
    fffeb68c:	910003fd 	mov	x29, sp
    fffeb690:	290387a0 	stp	w0, w1, [x29, #28]
    fffeb694:	9100c3a1 	add	x1, x29, #0x30
    fffeb698:	528005e0 	mov	w0, #0x2f                  	// #47
    fffeb69c:	b81e8c20 	str	w0, [x1, #-24]!
    fffeb6a0:	f0000040 	adrp	x0, ffff6000 <ext_clocks+0x18>
    fffeb6a4:	f943b000 	ldr	x0, [x0, #1888]
    fffeb6a8:	97fffb83 	bl	fffea4b4 <pm_ipi_send_sync>
    fffeb6ac:	a8c37bfd 	ldp	x29, x30, [sp], #48
    fffeb6b0:	d65f03c0 	ret

00000000fffeb6b4 <pm_get_callbackdata>:
    fffeb6b4:	a9bd7bfd 	stp	x29, x30, [sp, #-48]!
    fffeb6b8:	910003fd 	mov	x29, sp
    fffeb6bc:	a90153f3 	stp	x19, x20, [sp, #16]
    fffeb6c0:	f0000053 	adrp	x19, ffff6000 <ext_clocks+0x18>
    fffeb6c4:	aa0003f4 	mov	x20, x0
    fffeb6c8:	f90013f5 	str	x21, [sp, #32]
    fffeb6cc:	f943b260 	ldr	x0, [x19, #1888]
    fffeb6d0:	aa0103f5 	mov	x21, x1
    fffeb6d4:	97fffba8 	bl	fffea574 <pm_ipi_irq_status>
    fffeb6d8:	34000120 	cbz	w0, fffeb6fc <pm_get_callbackdata+0x48>
    fffeb6dc:	aa1503e1 	mov	x1, x21
    fffeb6e0:	aa1403e0 	mov	x0, x20
    fffeb6e4:	97fffb66 	bl	fffea47c <pm_ipi_buff_read_callb>
    fffeb6e8:	f94013f5 	ldr	x21, [sp, #32]
    fffeb6ec:	f943b260 	ldr	x0, [x19, #1888]
    fffeb6f0:	a94153f3 	ldp	x19, x20, [sp, #16]
    fffeb6f4:	a8c37bfd 	ldp	x29, x30, [sp], #48
    fffeb6f8:	17fffb9b 	b	fffea564 <pm_ipi_irq_clear>
    fffeb6fc:	a94153f3 	ldp	x19, x20, [sp, #16]
    fffeb700:	f94013f5 	ldr	x21, [sp, #32]
    fffeb704:	a8c37bfd 	ldp	x29, x30, [sp], #48
    fffeb708:	d65f03c0 	ret

00000000fffeb70c <pm_pinctrl_request>:
    fffeb70c:	a9bd7bfd 	stp	x29, x30, [sp, #-48]!
    fffeb710:	d2800003 	mov	x3, #0x0                   	// #0
    fffeb714:	d2800002 	mov	x2, #0x0                   	// #0
    fffeb718:	910003fd 	mov	x29, sp
    fffeb71c:	9100c3a1 	add	x1, x29, #0x30
    fffeb720:	b9001fa0 	str	w0, [x29, #28]
    fffeb724:	52800380 	mov	w0, #0x1c                  	// #28
    fffeb728:	b81e8c20 	str	w0, [x1, #-24]!
    fffeb72c:	f0000040 	adrp	x0, ffff6000 <ext_clocks+0x18>
    fffeb730:	f943b000 	ldr	x0, [x0, #1888]
    fffeb734:	97fffb60 	bl	fffea4b4 <pm_ipi_send_sync>
    fffeb738:	a8c37bfd 	ldp	x29, x30, [sp], #48
    fffeb73c:	d65f03c0 	ret

00000000fffeb740 <pm_pinctrl_release>:
    fffeb740:	a9bd7bfd 	stp	x29, x30, [sp, #-48]!
    fffeb744:	d2800003 	mov	x3, #0x0                   	// #0
    fffeb748:	d2800002 	mov	x2, #0x0                   	// #0
    fffeb74c:	910003fd 	mov	x29, sp
    fffeb750:	9100c3a1 	add	x1, x29, #0x30
    fffeb754:	b9001fa0 	str	w0, [x29, #28]
    fffeb758:	528003a0 	mov	w0, #0x1d                  	// #29
    fffeb75c:	b81e8c20 	str	w0, [x1, #-24]!
    fffeb760:	f0000040 	adrp	x0, ffff6000 <ext_clocks+0x18>
    fffeb764:	f943b000 	ldr	x0, [x0, #1888]
    fffeb768:	97fffb53 	bl	fffea4b4 <pm_ipi_send_sync>
    fffeb76c:	a8c37bfd 	ldp	x29, x30, [sp], #48
    fffeb770:	d65f03c0 	ret

00000000fffeb774 <pm_pinctrl_get_function>:
    fffeb774:	a9bd7bfd 	stp	x29, x30, [sp, #-48]!
    fffeb778:	528003c2 	mov	w2, #0x1e                  	// #30
    fffeb77c:	d2800023 	mov	x3, #0x1                   	// #1
    fffeb780:	910003fd 	mov	x29, sp
    fffeb784:	b9001fa0 	str	w0, [x29, #28]
    fffeb788:	9100c3a0 	add	x0, x29, #0x30
    fffeb78c:	b81e8c02 	str	w2, [x0, #-24]!
    fffeb790:	aa0103e2 	mov	x2, x1
    fffeb794:	aa0003e1 	mov	x1, x0
    fffeb798:	f0000040 	adrp	x0, ffff6000 <ext_clocks+0x18>
    fffeb79c:	f943b000 	ldr	x0, [x0, #1888]
    fffeb7a0:	97fffb45 	bl	fffea4b4 <pm_ipi_send_sync>
    fffeb7a4:	a8c37bfd 	ldp	x29, x30, [sp], #48
    fffeb7a8:	d65f03c0 	ret

00000000fffeb7ac <pm_pinctrl_set_function>:
    fffeb7ac:	a9bd7bfd 	stp	x29, x30, [sp, #-48]!
    fffeb7b0:	d2800003 	mov	x3, #0x0                   	// #0
    fffeb7b4:	d2800002 	mov	x2, #0x0                   	// #0
    fffeb7b8:	910003fd 	mov	x29, sp
    fffeb7bc:	290387a0 	stp	w0, w1, [x29, #28]
    fffeb7c0:	9100c3a1 	add	x1, x29, #0x30
    fffeb7c4:	528003e0 	mov	w0, #0x1f                  	// #31
    fffeb7c8:	b81e8c20 	str	w0, [x1, #-24]!
    fffeb7cc:	f0000040 	adrp	x0, ffff6000 <ext_clocks+0x18>
    fffeb7d0:	f943b000 	ldr	x0, [x0, #1888]
    fffeb7d4:	97fffb38 	bl	fffea4b4 <pm_ipi_send_sync>
    fffeb7d8:	a8c37bfd 	ldp	x29, x30, [sp], #48
    fffeb7dc:	d65f03c0 	ret

00000000fffeb7e0 <pm_pinctrl_get_config>:
    fffeb7e0:	a9bd7bfd 	stp	x29, x30, [sp, #-48]!
    fffeb7e4:	d2800023 	mov	x3, #0x1                   	// #1
    fffeb7e8:	910003fd 	mov	x29, sp
    fffeb7ec:	290387a0 	stp	w0, w1, [x29, #28]
    fffeb7f0:	9100c3a1 	add	x1, x29, #0x30
    fffeb7f4:	52800400 	mov	w0, #0x20                  	// #32
    fffeb7f8:	b81e8c20 	str	w0, [x1, #-24]!
    fffeb7fc:	f0000040 	adrp	x0, ffff6000 <ext_clocks+0x18>
    fffeb800:	f943b000 	ldr	x0, [x0, #1888]
    fffeb804:	97fffb2c 	bl	fffea4b4 <pm_ipi_send_sync>
    fffeb808:	a8c37bfd 	ldp	x29, x30, [sp], #48
    fffeb80c:	d65f03c0 	ret

00000000fffeb810 <pm_pinctrl_set_config>:
    fffeb810:	a9bd7bfd 	stp	x29, x30, [sp, #-48]!
    fffeb814:	d2800003 	mov	x3, #0x0                   	// #0
    fffeb818:	910003fd 	mov	x29, sp
    fffeb81c:	290387a0 	stp	w0, w1, [x29, #28]
    fffeb820:	9100c3a1 	add	x1, x29, #0x30
    fffeb824:	52800420 	mov	w0, #0x21                  	// #33
    fffeb828:	b90027a2 	str	w2, [x29, #36]
    fffeb82c:	d2800002 	mov	x2, #0x0                   	// #0
    fffeb830:	b81e8c20 	str	w0, [x1, #-24]!
    fffeb834:	f0000040 	adrp	x0, ffff6000 <ext_clocks+0x18>
    fffeb838:	f943b000 	ldr	x0, [x0, #1888]
    fffeb83c:	97fffb1e 	bl	fffea4b4 <pm_ipi_send_sync>
    fffeb840:	a8c37bfd 	ldp	x29, x30, [sp], #48
    fffeb844:	d65f03c0 	ret

00000000fffeb848 <pm_ioctl>:
    fffeb848:	14000289 	b	fffec26c <pm_api_ioctl>

00000000fffeb84c <pm_clock_enable>:
    fffeb84c:	a9bc7bfd 	stp	x29, x30, [sp, #-64]!
    fffeb850:	910003fd 	mov	x29, sp
    fffeb854:	f9000bf3 	str	x19, [sp, #16]
    fffeb858:	2a0003f3 	mov	w19, w0
    fffeb85c:	9400049c 	bl	fffecacc <pm_clock_get_pll>
    fffeb860:	b40000a0 	cbz	x0, fffeb874 <pm_clock_enable+0x28>
    fffeb864:	940004cf 	bl	fffecba0 <pm_clock_pll_enable>
    fffeb868:	f9400bf3 	ldr	x19, [sp, #16]
    fffeb86c:	a8c47bfd 	ldp	x29, x30, [sp], #64
    fffeb870:	d65f03c0 	ret
    fffeb874:	2a1303e0 	mov	w0, w19
    fffeb878:	94000537 	bl	fffecd54 <pm_clock_id_is_valid>
    fffeb87c:	35ffff60 	cbnz	w0, fffeb868 <pm_clock_enable+0x1c>
    fffeb880:	910103a1 	add	x1, x29, #0x40
    fffeb884:	52800480 	mov	w0, #0x24                  	// #36
    fffeb888:	d2800003 	mov	x3, #0x0                   	// #0
    fffeb88c:	d2800002 	mov	x2, #0x0                   	// #0
    fffeb890:	b9002fb3 	str	w19, [x29, #44]
    fffeb894:	b81e8c20 	str	w0, [x1, #-24]!
    fffeb898:	f0000040 	adrp	x0, ffff6000 <ext_clocks+0x18>
    fffeb89c:	f943b000 	ldr	x0, [x0, #1888]
    fffeb8a0:	97fffb05 	bl	fffea4b4 <pm_ipi_send_sync>
    fffeb8a4:	711f481f 	cmp	w0, #0x7d2
    fffeb8a8:	1a9f1000 	csel	w0, w0, wzr, ne  // ne = any
    fffeb8ac:	17ffffef 	b	fffeb868 <pm_clock_enable+0x1c>

00000000fffeb8b0 <pm_clock_disable>:
    fffeb8b0:	a9bc7bfd 	stp	x29, x30, [sp, #-64]!
    fffeb8b4:	910003fd 	mov	x29, sp
    fffeb8b8:	f9000bf3 	str	x19, [sp, #16]
    fffeb8bc:	2a0003f3 	mov	w19, w0
    fffeb8c0:	94000483 	bl	fffecacc <pm_clock_get_pll>
    fffeb8c4:	b40000a0 	cbz	x0, fffeb8d8 <pm_clock_disable+0x28>
    fffeb8c8:	940004c2 	bl	fffecbd0 <pm_clock_pll_disable>
    fffeb8cc:	f9400bf3 	ldr	x19, [sp, #16]
    fffeb8d0:	a8c47bfd 	ldp	x29, x30, [sp], #64
    fffeb8d4:	d65f03c0 	ret
    fffeb8d8:	2a1303e0 	mov	w0, w19
    fffeb8dc:	9400051e 	bl	fffecd54 <pm_clock_id_is_valid>
    fffeb8e0:	35ffff60 	cbnz	w0, fffeb8cc <pm_clock_disable+0x1c>
    fffeb8e4:	910103a1 	add	x1, x29, #0x40
    fffeb8e8:	528004a0 	mov	w0, #0x25                  	// #37
    fffeb8ec:	d2800003 	mov	x3, #0x0                   	// #0
    fffeb8f0:	d2800002 	mov	x2, #0x0                   	// #0
    fffeb8f4:	b9002fb3 	str	w19, [x29, #44]
    fffeb8f8:	b81e8c20 	str	w0, [x1, #-24]!
    fffeb8fc:	f0000040 	adrp	x0, ffff6000 <ext_clocks+0x18>
    fffeb900:	f943b000 	ldr	x0, [x0, #1888]
    fffeb904:	97fffaec 	bl	fffea4b4 <pm_ipi_send_sync>
    fffeb908:	711f481f 	cmp	w0, #0x7d2
    fffeb90c:	1a9f1000 	csel	w0, w0, wzr, ne  // ne = any
    fffeb910:	17ffffef 	b	fffeb8cc <pm_clock_disable+0x1c>

00000000fffeb914 <pm_clock_getstate>:
    fffeb914:	a9bc7bfd 	stp	x29, x30, [sp, #-64]!
    fffeb918:	910003fd 	mov	x29, sp
    fffeb91c:	a90153f3 	stp	x19, x20, [sp, #16]
    fffeb920:	2a0003f4 	mov	w20, w0
    fffeb924:	aa0103f3 	mov	x19, x1
    fffeb928:	94000469 	bl	fffecacc <pm_clock_get_pll>
    fffeb92c:	b40000c0 	cbz	x0, fffeb944 <pm_clock_getstate+0x30>
    fffeb930:	aa1303e1 	mov	x1, x19
    fffeb934:	940004ad 	bl	fffecbe8 <pm_clock_pll_get_state>
    fffeb938:	a94153f3 	ldp	x19, x20, [sp, #16]
    fffeb93c:	a8c47bfd 	ldp	x29, x30, [sp], #64
    fffeb940:	d65f03c0 	ret
    fffeb944:	2a1403e0 	mov	w0, w20
    fffeb948:	94000503 	bl	fffecd54 <pm_clock_id_is_valid>
    fffeb94c:	35ffff60 	cbnz	w0, fffeb938 <pm_clock_getstate+0x24>
    fffeb950:	910103a0 	add	x0, x29, #0x40
    fffeb954:	528004c1 	mov	w1, #0x26                  	// #38
    fffeb958:	d2800023 	mov	x3, #0x1                   	// #1
    fffeb95c:	aa1303e2 	mov	x2, x19
    fffeb960:	b9002fb4 	str	w20, [x29, #44]
    fffeb964:	b81e8c01 	str	w1, [x0, #-24]!
    fffeb968:	aa0003e1 	mov	x1, x0
    fffeb96c:	f0000040 	adrp	x0, ffff6000 <ext_clocks+0x18>
    fffeb970:	f943b000 	ldr	x0, [x0, #1888]
    fffeb974:	97fffad0 	bl	fffea4b4 <pm_ipi_send_sync>
    fffeb978:	17fffff0 	b	fffeb938 <pm_clock_getstate+0x24>

00000000fffeb97c <pm_clock_setrate>:
    fffeb97c:	52800080 	mov	w0, #0x4                   	// #4
    fffeb980:	d65f03c0 	ret

00000000fffeb984 <pm_clock_getrate>:
    fffeb984:	52800080 	mov	w0, #0x4                   	// #4
    fffeb988:	d65f03c0 	ret

00000000fffeb98c <pm_clock_setparent>:
    fffeb98c:	a9bc7bfd 	stp	x29, x30, [sp, #-64]!
    fffeb990:	910003fd 	mov	x29, sp
    fffeb994:	a90153f3 	stp	x19, x20, [sp, #16]
    fffeb998:	2a0003f3 	mov	w19, w0
    fffeb99c:	2a0103f4 	mov	w20, w1
    fffeb9a0:	94000466 	bl	fffecb38 <pm_clock_get_pll_by_related_clk>
    fffeb9a4:	b40000e0 	cbz	x0, fffeb9c0 <pm_clock_setparent+0x34>
    fffeb9a8:	2a1403e2 	mov	w2, w20
    fffeb9ac:	2a1303e1 	mov	w1, w19
    fffeb9b0:	940004a2 	bl	fffecc38 <pm_clock_pll_set_parent>
    fffeb9b4:	a94153f3 	ldp	x19, x20, [sp, #16]
    fffeb9b8:	a8c47bfd 	ldp	x29, x30, [sp], #64
    fffeb9bc:	d65f03c0 	ret
    fffeb9c0:	2a1303e0 	mov	w0, w19
    fffeb9c4:	940004e4 	bl	fffecd54 <pm_clock_id_is_valid>
    fffeb9c8:	35ffff60 	cbnz	w0, fffeb9b4 <pm_clock_setparent+0x28>
    fffeb9cc:	910103a1 	add	x1, x29, #0x40
    fffeb9d0:	52800560 	mov	w0, #0x2b                  	// #43
    fffeb9d4:	d2800003 	mov	x3, #0x0                   	// #0
    fffeb9d8:	d2800002 	mov	x2, #0x0                   	// #0
    fffeb9dc:	2905d3b3 	stp	w19, w20, [x29, #44]
    fffeb9e0:	b81e8c20 	str	w0, [x1, #-24]!
    fffeb9e4:	f0000040 	adrp	x0, ffff6000 <ext_clocks+0x18>
    fffeb9e8:	f943b000 	ldr	x0, [x0, #1888]
    fffeb9ec:	97fffab2 	bl	fffea4b4 <pm_ipi_send_sync>
    fffeb9f0:	17fffff1 	b	fffeb9b4 <pm_clock_setparent+0x28>

00000000fffeb9f4 <pm_clock_getparent>:
    fffeb9f4:	a9bc7bfd 	stp	x29, x30, [sp, #-64]!
    fffeb9f8:	910003fd 	mov	x29, sp
    fffeb9fc:	a90153f3 	stp	x19, x20, [sp, #16]
    fffeba00:	2a0003f3 	mov	w19, w0
    fffeba04:	aa0103f4 	mov	x20, x1
    fffeba08:	9400044c 	bl	fffecb38 <pm_clock_get_pll_by_related_clk>
    fffeba0c:	b40000e0 	cbz	x0, fffeba28 <pm_clock_getparent+0x34>
    fffeba10:	aa1403e2 	mov	x2, x20
    fffeba14:	2a1303e1 	mov	w1, w19
    fffeba18:	9400049b 	bl	fffecc84 <pm_clock_pll_get_parent>
    fffeba1c:	a94153f3 	ldp	x19, x20, [sp, #16]
    fffeba20:	a8c47bfd 	ldp	x29, x30, [sp], #64
    fffeba24:	d65f03c0 	ret
    fffeba28:	2a1303e0 	mov	w0, w19
    fffeba2c:	940004ca 	bl	fffecd54 <pm_clock_id_is_valid>
    fffeba30:	35ffff60 	cbnz	w0, fffeba1c <pm_clock_getparent+0x28>
    fffeba34:	910103a1 	add	x1, x29, #0x40
    fffeba38:	52800580 	mov	w0, #0x2c                  	// #44
    fffeba3c:	d2800023 	mov	x3, #0x1                   	// #1
    fffeba40:	aa1403e2 	mov	x2, x20
    fffeba44:	b9002fb3 	str	w19, [x29, #44]
    fffeba48:	b81e8c20 	str	w0, [x1, #-24]!
    fffeba4c:	f0000040 	adrp	x0, ffff6000 <ext_clocks+0x18>
    fffeba50:	f943b000 	ldr	x0, [x0, #1888]
    fffeba54:	97fffa98 	bl	fffea4b4 <pm_ipi_send_sync>
    fffeba58:	17fffff1 	b	fffeba1c <pm_clock_getparent+0x28>

00000000fffeba5c <pm_query_data>:
    fffeba5c:	51000405 	sub	w5, w0, #0x1
    fffeba60:	710030bf 	cmp	w5, #0xc
    fffeba64:	54000768 	b.hi	fffebb50 <pm_query_data+0xf4>  // b.pmore
    fffeba68:	a9be7bfd 	stp	x29, x30, [sp, #-32]!
    fffeba6c:	2a0103e3 	mov	w3, w1
    fffeba70:	2a0303e0 	mov	w0, w3
    fffeba74:	2a0203e1 	mov	w1, w2
    fffeba78:	910003fd 	mov	x29, sp
    fffeba7c:	f9000bf3 	str	x19, [sp, #16]
    fffeba80:	f0000022 	adrp	x2, ffff2000 <__TEXT_END__>
    fffeba84:	aa0403f3 	mov	x19, x4
    fffeba88:	9109b042 	add	x2, x2, #0x26c
    fffeba8c:	38654842 	ldrb	w2, [x2, w5, uxtw]
    fffeba90:	10000063 	adr	x3, fffeba9c <pm_query_data+0x40>
    fffeba94:	8b228862 	add	x2, x3, w2, sxtb #2
    fffeba98:	d61f0040 	br	x2
    fffeba9c:	f9400bf3 	ldr	x19, [sp, #16]
    fffebaa0:	aa0403e1 	mov	x1, x4
    fffebaa4:	a8c27bfd 	ldp	x29, x30, [sp], #32
    fffebaa8:	1400032b 	b	fffec754 <pm_api_clock_get_name>
    fffebaac:	91001082 	add	x2, x4, #0x4
    fffebab0:	9400034c 	bl	fffec7e0 <pm_api_clock_get_topology>
    fffebab4:	b9000260 	str	w0, [x19]
    fffebab8:	f9400bf3 	ldr	x19, [sp, #16]
    fffebabc:	a8c27bfd 	ldp	x29, x30, [sp], #32
    fffebac0:	d65f03c0 	ret
    fffebac4:	91002082 	add	x2, x4, #0x8
    fffebac8:	91001081 	add	x1, x4, #0x4
    fffebacc:	94000379 	bl	fffec8b0 <pm_api_clock_get_fixedfactor_params>
    fffebad0:	17fffff9 	b	fffebab4 <pm_query_data+0x58>
    fffebad4:	91001082 	add	x2, x4, #0x4
    fffebad8:	9400039e 	bl	fffec950 <pm_api_clock_get_parents>
    fffebadc:	17fffff6 	b	fffebab4 <pm_query_data+0x58>
    fffebae0:	91001081 	add	x1, x4, #0x4
    fffebae4:	940003ce 	bl	fffeca1c <pm_api_clock_get_attributes>
    fffebae8:	17fffff3 	b	fffebab4 <pm_query_data+0x58>
    fffebaec:	91001080 	add	x0, x4, #0x4
    fffebaf0:	94000134 	bl	fffebfc0 <pm_api_pinctrl_get_num_pins>
    fffebaf4:	17fffff0 	b	fffebab4 <pm_query_data+0x58>
    fffebaf8:	91001080 	add	x0, x4, #0x4
    fffebafc:	94000135 	bl	fffebfd0 <pm_api_pinctrl_get_num_functions>
    fffebb00:	17ffffed 	b	fffebab4 <pm_query_data+0x58>
    fffebb04:	91001081 	add	x1, x4, #0x4
    fffebb08:	94000136 	bl	fffebfe0 <pm_api_pinctrl_get_num_func_groups>
    fffebb0c:	17ffffea 	b	fffebab4 <pm_query_data+0x58>
    fffebb10:	f9400bf3 	ldr	x19, [sp, #16]
    fffebb14:	aa0403e1 	mov	x1, x4
    fffebb18:	a8c27bfd 	ldp	x29, x30, [sp], #32
    fffebb1c:	14000146 	b	fffec034 <pm_api_pinctrl_get_function_name>
    fffebb20:	91001082 	add	x2, x4, #0x4
    fffebb24:	94000152 	bl	fffec06c <pm_api_pinctrl_get_function_groups>
    fffebb28:	17ffffe3 	b	fffebab4 <pm_query_data+0x58>
    fffebb2c:	91001082 	add	x2, x4, #0x4
    fffebb30:	9400017e 	bl	fffec128 <pm_api_pinctrl_get_pin_groups>
    fffebb34:	17ffffe0 	b	fffebab4 <pm_query_data+0x58>
    fffebb38:	91001080 	add	x0, x4, #0x4
    fffebb3c:	94000302 	bl	fffec744 <pm_api_clock_get_num_clocks>
    fffebb40:	17ffffdd 	b	fffebab4 <pm_query_data+0x58>
    fffebb44:	91001082 	add	x2, x4, #0x4
    fffebb48:	940003c6 	bl	fffeca60 <pm_api_clock_get_max_divisor>
    fffebb4c:	17ffffda 	b	fffebab4 <pm_query_data+0x58>
    fffebb50:	52800020 	mov	w0, #0x1                   	// #1
    fffebb54:	b9000080 	str	w0, [x4]
    fffebb58:	d65f03c0 	ret

00000000fffebb5c <pm_sha_hash>:
    fffebb5c:	a9bd7bfd 	stp	x29, x30, [sp, #-48]!
    fffebb60:	910003fd 	mov	x29, sp
    fffebb64:	290387a0 	stp	w0, w1, [x29, #28]
    fffebb68:	9100c3a1 	add	x1, x29, #0x30
    fffebb6c:	52800340 	mov	w0, #0x1a                  	// #26
    fffebb70:	29048fa2 	stp	w2, w3, [x29, #36]
    fffebb74:	d2800003 	mov	x3, #0x0                   	// #0
    fffebb78:	d2800002 	mov	x2, #0x0                   	// #0
    fffebb7c:	b81e8c20 	str	w0, [x1, #-24]!
    fffebb80:	f0000040 	adrp	x0, ffff6000 <ext_clocks+0x18>
    fffebb84:	f943b000 	ldr	x0, [x0, #1888]
    fffebb88:	97fffa4b 	bl	fffea4b4 <pm_ipi_send_sync>
    fffebb8c:	a8c37bfd 	ldp	x29, x30, [sp], #48
    fffebb90:	d65f03c0 	ret

00000000fffebb94 <pm_rsa_core>:
    fffebb94:	a9bd7bfd 	stp	x29, x30, [sp, #-48]!
    fffebb98:	910003fd 	mov	x29, sp
    fffebb9c:	290387a0 	stp	w0, w1, [x29, #28]
    fffebba0:	9100c3a1 	add	x1, x29, #0x30
    fffebba4:	52800360 	mov	w0, #0x1b                  	// #27
    fffebba8:	29048fa2 	stp	w2, w3, [x29, #36]
    fffebbac:	d2800003 	mov	x3, #0x0                   	// #0
    fffebbb0:	d2800002 	mov	x2, #0x0                   	// #0
    fffebbb4:	b81e8c20 	str	w0, [x1, #-24]!
    fffebbb8:	f0000040 	adrp	x0, ffff6000 <ext_clocks+0x18>
    fffebbbc:	f943b000 	ldr	x0, [x0, #1888]
    fffebbc0:	97fffa3d 	bl	fffea4b4 <pm_ipi_send_sync>
    fffebbc4:	a8c37bfd 	ldp	x29, x30, [sp], #48
    fffebbc8:	d65f03c0 	ret

00000000fffebbcc <pm_secure_image>:
    fffebbcc:	a9bd7bfd 	stp	x29, x30, [sp, #-48]!
    fffebbd0:	910003fd 	mov	x29, sp
    fffebbd4:	290383a1 	stp	w1, w0, [x29, #28]
    fffebbd8:	9100c3a1 	add	x1, x29, #0x30
    fffebbdc:	528005a0 	mov	w0, #0x2d                  	// #45
    fffebbe0:	29048ba3 	stp	w3, w2, [x29, #36]
    fffebbe4:	d2800043 	mov	x3, #0x2                   	// #2
    fffebbe8:	aa0403e2 	mov	x2, x4
    fffebbec:	b81e8c20 	str	w0, [x1, #-24]!
    fffebbf0:	f0000040 	adrp	x0, ffff6000 <ext_clocks+0x18>
    fffebbf4:	f943b000 	ldr	x0, [x0, #1888]
    fffebbf8:	97fffa2f 	bl	fffea4b4 <pm_ipi_send_sync>
    fffebbfc:	a8c37bfd 	ldp	x29, x30, [sp], #48
    fffebc00:	d65f03c0 	ret

00000000fffebc04 <pm_fpga_read>:
    fffebc04:	a9bd7bfd 	stp	x29, x30, [sp, #-48]!
    fffebc08:	910003fd 	mov	x29, sp
    fffebc0c:	290387a0 	stp	w0, w1, [x29, #28]
    fffebc10:	9100c3a1 	add	x1, x29, #0x30
    fffebc14:	528005c0 	mov	w0, #0x2e                  	// #46
    fffebc18:	29048fa2 	stp	w2, w3, [x29, #36]
    fffebc1c:	d2800023 	mov	x3, #0x1                   	// #1
    fffebc20:	aa0403e2 	mov	x2, x4
    fffebc24:	b81e8c20 	str	w0, [x1, #-24]!
    fffebc28:	f0000040 	adrp	x0, ffff6000 <ext_clocks+0x18>
    fffebc2c:	f943b000 	ldr	x0, [x0, #1888]
    fffebc30:	97fffa21 	bl	fffea4b4 <pm_ipi_send_sync>
    fffebc34:	a8c37bfd 	ldp	x29, x30, [sp], #48
    fffebc38:	d65f03c0 	ret

00000000fffebc3c <pm_pll_set_parameter>:
    fffebc3c:	5100c803 	sub	w3, w0, #0x32
    fffebc40:	7100107f 	cmp	w3, #0x4
    fffebc44:	54000228 	b.hi	fffebc88 <pm_pll_set_parameter+0x4c>  // b.pmore
    fffebc48:	7100243f 	cmp	w1, #0x9
    fffebc4c:	540001e8 	b.hi	fffebc88 <pm_pll_set_parameter+0x4c>  // b.pmore
    fffebc50:	a9bd7bfd 	stp	x29, x30, [sp, #-48]!
    fffebc54:	d2800003 	mov	x3, #0x0                   	// #0
    fffebc58:	910003fd 	mov	x29, sp
    fffebc5c:	290387a0 	stp	w0, w1, [x29, #28]
    fffebc60:	9100c3a1 	add	x1, x29, #0x30
    fffebc64:	52800600 	mov	w0, #0x30                  	// #48
    fffebc68:	b90027a2 	str	w2, [x29, #36]
    fffebc6c:	d2800002 	mov	x2, #0x0                   	// #0
    fffebc70:	b81e8c20 	str	w0, [x1, #-24]!
    fffebc74:	f0000040 	adrp	x0, ffff6000 <ext_clocks+0x18>
    fffebc78:	f943b000 	ldr	x0, [x0, #1888]
    fffebc7c:	97fffa0e 	bl	fffea4b4 <pm_ipi_send_sync>
    fffebc80:	a8c37bfd 	ldp	x29, x30, [sp], #48
    fffebc84:	d65f03c0 	ret
    fffebc88:	52800020 	mov	w0, #0x1                   	// #1
    fffebc8c:	d65f03c0 	ret

00000000fffebc90 <pm_clock_setdivider>:
    fffebc90:	a9bc7bfd 	stp	x29, x30, [sp, #-64]!
    fffebc94:	910003fd 	mov	x29, sp
    fffebc98:	a90153f3 	stp	x19, x20, [sp, #16]
    fffebc9c:	2a0103f3 	mov	w19, w1
    fffebca0:	2a0003f4 	mov	w20, w0
    fffebca4:	910093a1 	add	x1, x29, #0x24
    fffebca8:	94000398 	bl	fffecb08 <pm_clock_get_pll_node_id>
    fffebcac:	35000100 	cbnz	w0, fffebccc <pm_clock_setdivider+0x3c>
    fffebcb0:	b94027a0 	ldr	w0, [x29, #36]
    fffebcb4:	2a1303e2 	mov	w2, w19
    fffebcb8:	52800021 	mov	w1, #0x1                   	// #1
    fffebcbc:	97ffffe0 	bl	fffebc3c <pm_pll_set_parameter>
    fffebcc0:	a94153f3 	ldp	x19, x20, [sp, #16]
    fffebcc4:	a8c47bfd 	ldp	x29, x30, [sp], #64
    fffebcc8:	d65f03c0 	ret
    fffebccc:	2a1403e0 	mov	w0, w20
    fffebcd0:	94000421 	bl	fffecd54 <pm_clock_id_is_valid>
    fffebcd4:	35ffff60 	cbnz	w0, fffebcc0 <pm_clock_setdivider+0x30>
    fffebcd8:	12103e61 	and	w1, w19, #0xffff0000
    fffebcdc:	12003e60 	and	w0, w19, #0xffff
    fffebce0:	3140403f 	cmn	w1, #0x10, lsl #12
    fffebce4:	54000220 	b.eq	fffebd28 <pm_clock_setdivider+0x98>  // b.none
    fffebce8:	529fffe1 	mov	w1, #0xffff                	// #65535
    fffebcec:	6b01001f 	cmp	w0, w1
    fffebcf0:	54000201 	b.ne	fffebd30 <pm_clock_setdivider+0xa0>  // b.any
    fffebcf4:	53107e60 	lsr	w0, w19, #16
    fffebcf8:	52800021 	mov	w1, #0x1                   	// #1
    fffebcfc:	290587b4 	stp	w20, w1, [x29, #44]
    fffebd00:	910103a1 	add	x1, x29, #0x40
    fffebd04:	b90037a0 	str	w0, [x29, #52]
    fffebd08:	528004e0 	mov	w0, #0x27                  	// #39
    fffebd0c:	d2800003 	mov	x3, #0x0                   	// #0
    fffebd10:	d2800002 	mov	x2, #0x0                   	// #0
    fffebd14:	b81e8c20 	str	w0, [x1, #-24]!
    fffebd18:	f0000040 	adrp	x0, ffff6000 <ext_clocks+0x18>
    fffebd1c:	f943b000 	ldr	x0, [x0, #1888]
    fffebd20:	97fff9e5 	bl	fffea4b4 <pm_ipi_send_sync>
    fffebd24:	17ffffe7 	b	fffebcc0 <pm_clock_setdivider+0x30>
    fffebd28:	52800001 	mov	w1, #0x0                   	// #0
    fffebd2c:	17fffff4 	b	fffebcfc <pm_clock_setdivider+0x6c>
    fffebd30:	52800020 	mov	w0, #0x1                   	// #1
    fffebd34:	17ffffe3 	b	fffebcc0 <pm_clock_setdivider+0x30>

00000000fffebd38 <pm_pll_get_parameter>:
    fffebd38:	5100c803 	sub	w3, w0, #0x32
    fffebd3c:	7100107f 	cmp	w3, #0x4
    fffebd40:	540001e8 	b.hi	fffebd7c <pm_pll_get_parameter+0x44>  // b.pmore
    fffebd44:	7100243f 	cmp	w1, #0x9
    fffebd48:	540001a8 	b.hi	fffebd7c <pm_pll_get_parameter+0x44>  // b.pmore
    fffebd4c:	a9bd7bfd 	stp	x29, x30, [sp, #-48]!
    fffebd50:	d2800023 	mov	x3, #0x1                   	// #1
    fffebd54:	910003fd 	mov	x29, sp
    fffebd58:	290387a0 	stp	w0, w1, [x29, #28]
    fffebd5c:	9100c3a1 	add	x1, x29, #0x30
    fffebd60:	52800620 	mov	w0, #0x31                  	// #49
    fffebd64:	b81e8c20 	str	w0, [x1, #-24]!
    fffebd68:	f0000040 	adrp	x0, ffff6000 <ext_clocks+0x18>
    fffebd6c:	f943b000 	ldr	x0, [x0, #1888]
    fffebd70:	97fff9d1 	bl	fffea4b4 <pm_ipi_send_sync>
    fffebd74:	a8c37bfd 	ldp	x29, x30, [sp], #48
    fffebd78:	d65f03c0 	ret
    fffebd7c:	52800020 	mov	w0, #0x1                   	// #1
    fffebd80:	d65f03c0 	ret

00000000fffebd84 <pm_clock_getdivider>:
    fffebd84:	a9bb7bfd 	stp	x29, x30, [sp, #-80]!
    fffebd88:	910003fd 	mov	x29, sp
    fffebd8c:	a90153f3 	stp	x19, x20, [sp, #16]
    fffebd90:	2a0003f4 	mov	w20, w0
    fffebd94:	f90013f5 	str	x21, [sp, #32]
    fffebd98:	aa0103f5 	mov	x21, x1
    fffebd9c:	9100c3a1 	add	x1, x29, #0x30
    fffebda0:	9400035a 	bl	fffecb08 <pm_clock_get_pll_node_id>
    fffebda4:	350000e0 	cbnz	w0, fffebdc0 <pm_clock_getdivider+0x3c>
    fffebda8:	b94033a0 	ldr	w0, [x29, #48]
    fffebdac:	aa1503e2 	mov	x2, x21
    fffebdb0:	52800021 	mov	w1, #0x1                   	// #1
    fffebdb4:	97ffffe1 	bl	fffebd38 <pm_pll_get_parameter>
    fffebdb8:	2a0003f3 	mov	w19, w0
    fffebdbc:	1400002b 	b	fffebe68 <pm_clock_getdivider+0xe4>
    fffebdc0:	2a1403e0 	mov	w0, w20
    fffebdc4:	940003e4 	bl	fffecd54 <pm_clock_id_is_valid>
    fffebdc8:	2a0003f3 	mov	w19, w0
    fffebdcc:	350004e0 	cbnz	w0, fffebe68 <pm_clock_getdivider+0xe4>
    fffebdd0:	52800001 	mov	w1, #0x0                   	// #0
    fffebdd4:	2a1403e0 	mov	w0, w20
    fffebdd8:	940003ec 	bl	fffecd88 <pm_clock_has_div>
    fffebddc:	72001c1f 	tst	w0, #0xff
    fffebde0:	540001a0 	b.eq	fffebe14 <pm_clock_getdivider+0x90>  // b.none
    fffebde4:	52800500 	mov	w0, #0x28                  	// #40
    fffebde8:	290753a0 	stp	w0, w20, [x29, #56]
    fffebdec:	f0000040 	adrp	x0, ffff6000 <ext_clocks+0x18>
    fffebdf0:	d2800023 	mov	x3, #0x1                   	// #1
    fffebdf4:	9100d3a2 	add	x2, x29, #0x34
    fffebdf8:	9100e3a1 	add	x1, x29, #0x38
    fffebdfc:	f943b000 	ldr	x0, [x0, #1888]
    fffebe00:	b90043bf 	str	wzr, [x29, #64]
    fffebe04:	97fff9ac 	bl	fffea4b4 <pm_ipi_send_sync>
    fffebe08:	35fffd80 	cbnz	w0, fffebdb8 <pm_clock_getdivider+0x34>
    fffebe0c:	b94037a0 	ldr	w0, [x29, #52]
    fffebe10:	b90002a0 	str	w0, [x21]
    fffebe14:	52800021 	mov	w1, #0x1                   	// #1
    fffebe18:	2a1403e0 	mov	w0, w20
    fffebe1c:	940003db 	bl	fffecd88 <pm_clock_has_div>
    fffebe20:	72001c1f 	tst	w0, #0xff
    fffebe24:	54000220 	b.eq	fffebe68 <pm_clock_getdivider+0xe4>  // b.none
    fffebe28:	52800020 	mov	w0, #0x1                   	// #1
    fffebe2c:	290783b4 	stp	w20, w0, [x29, #60]
    fffebe30:	52800500 	mov	w0, #0x28                  	// #40
    fffebe34:	b9003ba0 	str	w0, [x29, #56]
    fffebe38:	f0000040 	adrp	x0, ffff6000 <ext_clocks+0x18>
    fffebe3c:	d2800023 	mov	x3, #0x1                   	// #1
    fffebe40:	9100d3a2 	add	x2, x29, #0x34
    fffebe44:	9100e3a1 	add	x1, x29, #0x38
    fffebe48:	f943b000 	ldr	x0, [x0, #1888]
    fffebe4c:	97fff99a 	bl	fffea4b4 <pm_ipi_send_sync>
    fffebe50:	2a0003f3 	mov	w19, w0
    fffebe54:	350000a0 	cbnz	w0, fffebe68 <pm_clock_getdivider+0xe4>
    fffebe58:	b94002a1 	ldr	w1, [x21]
    fffebe5c:	b94037a0 	ldr	w0, [x29, #52]
    fffebe60:	2a004020 	orr	w0, w1, w0, lsl #16
    fffebe64:	b90002a0 	str	w0, [x21]
    fffebe68:	2a1303e0 	mov	w0, w19
    fffebe6c:	f94013f5 	ldr	x21, [sp, #32]
    fffebe70:	a94153f3 	ldp	x19, x20, [sp, #16]
    fffebe74:	a8c57bfd 	ldp	x29, x30, [sp], #80
    fffebe78:	d65f03c0 	ret

00000000fffebe7c <pm_pll_set_mode>:
    fffebe7c:	5100c802 	sub	w2, w0, #0x32
    fffebe80:	7100105f 	cmp	w2, #0x4
    fffebe84:	54000208 	b.hi	fffebec4 <pm_pll_set_mode+0x48>  // b.pmore
    fffebe88:	7100083f 	cmp	w1, #0x2
    fffebe8c:	540001c8 	b.hi	fffebec4 <pm_pll_set_mode+0x48>  // b.pmore
    fffebe90:	a9bd7bfd 	stp	x29, x30, [sp, #-48]!
    fffebe94:	d2800003 	mov	x3, #0x0                   	// #0
    fffebe98:	d2800002 	mov	x2, #0x0                   	// #0
    fffebe9c:	910003fd 	mov	x29, sp
    fffebea0:	290387a0 	stp	w0, w1, [x29, #28]
    fffebea4:	9100c3a1 	add	x1, x29, #0x30
    fffebea8:	52800640 	mov	w0, #0x32                  	// #50
    fffebeac:	b81e8c20 	str	w0, [x1, #-24]!
    fffebeb0:	f0000040 	adrp	x0, ffff6000 <ext_clocks+0x18>
    fffebeb4:	f943b000 	ldr	x0, [x0, #1888]
    fffebeb8:	97fff97f 	bl	fffea4b4 <pm_ipi_send_sync>
    fffebebc:	a8c37bfd 	ldp	x29, x30, [sp], #48
    fffebec0:	d65f03c0 	ret
    fffebec4:	52800020 	mov	w0, #0x1                   	// #1
    fffebec8:	d65f03c0 	ret

00000000fffebecc <pm_pll_get_mode>:
    fffebecc:	5100c802 	sub	w2, w0, #0x32
    fffebed0:	7100105f 	cmp	w2, #0x4
    fffebed4:	540001c8 	b.hi	fffebf0c <pm_pll_get_mode+0x40>  // b.pmore
    fffebed8:	a9bd7bfd 	stp	x29, x30, [sp, #-48]!
    fffebedc:	aa0103e2 	mov	x2, x1
    fffebee0:	d2800023 	mov	x3, #0x1                   	// #1
    fffebee4:	910003fd 	mov	x29, sp
    fffebee8:	9100c3a1 	add	x1, x29, #0x30
    fffebeec:	b9001fa0 	str	w0, [x29, #28]
    fffebef0:	52800660 	mov	w0, #0x33                  	// #51
    fffebef4:	b81e8c20 	str	w0, [x1, #-24]!
    fffebef8:	f0000040 	adrp	x0, ffff6000 <ext_clocks+0x18>
    fffebefc:	f943b000 	ldr	x0, [x0, #1888]
    fffebf00:	97fff96d 	bl	fffea4b4 <pm_ipi_send_sync>
    fffebf04:	a8c37bfd 	ldp	x29, x30, [sp], #48
    fffebf08:	d65f03c0 	ret
    fffebf0c:	52800020 	mov	w0, #0x1                   	// #1
    fffebf10:	d65f03c0 	ret

00000000fffebf14 <pm_register_access>:
    fffebf14:	2a0103e5 	mov	w5, w1
    fffebf18:	52bff946 	mov	w6, #0xffca0000            	// #-3538944
    fffebf1c:	0a0600a6 	and	w6, w5, w6
    fffebf20:	2a0203e1 	mov	w1, w2
    fffebf24:	314d80df 	cmn	w6, #0x360, lsl #12
    fffebf28:	2a0303e2 	mov	w2, w3
    fffebf2c:	540001a0 	b.eq	fffebf60 <pm_register_access+0x4c>  // b.none
    fffebf30:	52bff906 	mov	w6, #0xffc80000            	// #-3670016
    fffebf34:	0a0600a6 	and	w6, w5, w6
    fffebf38:	314e00df 	cmn	w6, #0x380, lsl #12
    fffebf3c:	54000120 	b.eq	fffebf60 <pm_register_access+0x4c>  // b.none
    fffebf40:	52bff9c6 	mov	w6, #0xffce0000            	// #-3276800
    fffebf44:	0a0600a6 	and	w6, w5, w6
    fffebf48:	314c80df 	cmn	w6, #0x320, lsl #12
    fffebf4c:	540000a0 	b.eq	fffebf60 <pm_register_access+0x4c>  // b.none
    fffebf50:	52bffb06 	mov	w6, #0xffd80000            	// #-2621440
    fffebf54:	0a0600a6 	and	w6, w5, w6
    fffebf58:	314a00df 	cmn	w6, #0x280, lsl #12
    fffebf5c:	54000161 	b.ne	fffebf88 <pm_register_access+0x74>  // b.any
    fffebf60:	340000a0 	cbz	w0, fffebf74 <pm_register_access+0x60>
    fffebf64:	7100041f 	cmp	w0, #0x1
    fffebf68:	540000a0 	b.eq	fffebf7c <pm_register_access+0x68>  // b.none
    fffebf6c:	52800020 	mov	w0, #0x1                   	// #1
    fffebf70:	14000007 	b	fffebf8c <pm_register_access+0x78>
    fffebf74:	2a0503e0 	mov	w0, w5
    fffebf78:	17fffd73 	b	fffeb544 <pm_mmio_write>
    fffebf7c:	aa0403e1 	mov	x1, x4
    fffebf80:	2a0503e0 	mov	w0, w5
    fffebf84:	17fffd7e 	b	fffeb57c <pm_mmio_read>
    fffebf88:	5280fa40 	mov	w0, #0x7d2                 	// #2002
    fffebf8c:	d65f03c0 	ret

00000000fffebf90 <pm_efuse_access>:
    fffebf90:	a9bd7bfd 	stp	x29, x30, [sp, #-48]!
    fffebf94:	d2800023 	mov	x3, #0x1                   	// #1
    fffebf98:	910003fd 	mov	x29, sp
    fffebf9c:	290387a0 	stp	w0, w1, [x29, #28]
    fffebfa0:	9100c3a1 	add	x1, x29, #0x30
    fffebfa4:	528006a0 	mov	w0, #0x35                  	// #53
    fffebfa8:	b81e8c20 	str	w0, [x1, #-24]!
    fffebfac:	f0000040 	adrp	x0, ffff6000 <ext_clocks+0x18>
    fffebfb0:	f943b000 	ldr	x0, [x0, #1888]
    fffebfb4:	97fff940 	bl	fffea4b4 <pm_ipi_send_sync>
    fffebfb8:	a8c37bfd 	ldp	x29, x30, [sp], #48
    fffebfbc:	d65f03c0 	ret

00000000fffebfc0 <pm_api_pinctrl_get_num_pins>:
    fffebfc0:	528009c1 	mov	w1, #0x4e                  	// #78
    fffebfc4:	b9000001 	str	w1, [x0]
    fffebfc8:	52800000 	mov	w0, #0x0                   	// #0
    fffebfcc:	d65f03c0 	ret

00000000fffebfd0 <pm_api_pinctrl_get_num_functions>:
    fffebfd0:	52800721 	mov	w1, #0x39                  	// #57
    fffebfd4:	b9000001 	str	w1, [x0]
    fffebfd8:	52800000 	mov	w0, #0x0                   	// #0
    fffebfdc:	d65f03c0 	ret

00000000fffebfe0 <pm_api_pinctrl_get_num_func_groups>:
    fffebfe0:	7100e01f 	cmp	w0, #0x38
    fffebfe4:	54000248 	b.hi	fffec02c <pm_api_pinctrl_get_num_func_groups+0x4c>  // b.pmore
    fffebfe8:	d37b7c02 	ubfiz	x2, x0, #5, #32
    fffebfec:	90000040 	adrp	x0, ffff3000 <__RODATA_END__>
    fffebff0:	9138a000 	add	x0, x0, #0xe28
    fffebff4:	8b020000 	add	x0, x0, x2
    fffebff8:	f9400800 	ldr	x0, [x0, #16]
    fffebffc:	b900003f 	str	wzr, [x1]
    fffec000:	b5000060 	cbnz	x0, fffec00c <pm_api_pinctrl_get_num_func_groups+0x2c>
    fffec004:	52800000 	mov	w0, #0x0                   	// #0
    fffec008:	d65f03c0 	ret
    fffec00c:	529fffe3 	mov	w3, #0xffff                	// #65535
    fffec010:	78402402 	ldrh	w2, [x0], #2
    fffec014:	6b03005f 	cmp	w2, w3
    fffec018:	54ffff60 	b.eq	fffec004 <pm_api_pinctrl_get_num_func_groups+0x24>  // b.none
    fffec01c:	b9400022 	ldr	w2, [x1]
    fffec020:	11000442 	add	w2, w2, #0x1
    fffec024:	b9000022 	str	w2, [x1]
    fffec028:	17fffffa 	b	fffec010 <pm_api_pinctrl_get_num_func_groups+0x30>
    fffec02c:	52800020 	mov	w0, #0x1                   	// #1
    fffec030:	17fffff6 	b	fffec008 <pm_api_pinctrl_get_num_func_groups+0x28>

00000000fffec034 <pm_api_pinctrl_get_function_name>:
    fffec034:	2a0003e2 	mov	w2, w0
    fffec038:	aa0103e0 	mov	x0, x1
    fffec03c:	7100e05f 	cmp	w2, #0x38
    fffec040:	540000a9 	b.ls	fffec054 <pm_api_pinctrl_get_function_name+0x20>  // b.plast
    fffec044:	d0000021 	adrp	x1, ffff2000 <__TEXT_END__>
    fffec048:	9109e421 	add	x1, x1, #0x279
    fffec04c:	d2800202 	mov	x2, #0x10                  	// #16
    fffec050:	140011c3 	b	ffff075c <memcpy>
    fffec054:	d37b7c41 	ubfiz	x1, x2, #5, #32
    fffec058:	f0000023 	adrp	x3, ffff3000 <__RODATA_END__>
    fffec05c:	9138a063 	add	x3, x3, #0xe28
    fffec060:	d2800202 	mov	x2, #0x10                  	// #16
    fffec064:	8b010061 	add	x1, x3, x1
    fffec068:	17fffffa 	b	fffec050 <pm_api_pinctrl_get_function_name+0x1c>

00000000fffec06c <pm_api_pinctrl_get_function_groups>:
    fffec06c:	7100e01f 	cmp	w0, #0x38
    fffec070:	54000588 	b.hi	fffec120 <pm_api_pinctrl_get_function_groups+0xb4>  // b.pmore
    fffec074:	a9bd7bfd 	stp	x29, x30, [sp, #-48]!
    fffec078:	910003fd 	mov	x29, sp
    fffec07c:	a90153f3 	stp	x19, x20, [sp, #16]
    fffec080:	2a0003f3 	mov	w19, w0
    fffec084:	f90013f5 	str	x21, [sp, #32]
    fffec088:	aa0203f5 	mov	x21, x2
    fffec08c:	2a0103f4 	mov	w20, w1
    fffec090:	d2800182 	mov	x2, #0xc                   	// #12
    fffec094:	12800001 	mov	w1, #0xffffffff            	// #-1
    fffec098:	aa1503e0 	mov	x0, x21
    fffec09c:	940011ca 	bl	ffff07c4 <memset>
    fffec0a0:	d37b7e60 	ubfiz	x0, x19, #5, #32
    fffec0a4:	f0000033 	adrp	x19, ffff3000 <__RODATA_END__>
    fffec0a8:	9138a273 	add	x19, x19, #0xe28
    fffec0ac:	8b000260 	add	x0, x19, x0
    fffec0b0:	f9400801 	ldr	x1, [x0, #16]
    fffec0b4:	b5000301 	cbnz	x1, fffec114 <pm_api_pinctrl_get_function_groups+0xa8>
    fffec0b8:	52800000 	mov	w0, #0x0                   	// #0
    fffec0bc:	f94013f5 	ldr	x21, [sp, #32]
    fffec0c0:	a94153f3 	ldp	x19, x20, [sp, #16]
    fffec0c4:	a8c37bfd 	ldp	x29, x30, [sp], #48
    fffec0c8:	d65f03c0 	ret
    fffec0cc:	91000400 	add	x0, x0, #0x1
    fffec0d0:	8b000423 	add	x3, x1, x0, lsl #1
    fffec0d4:	785fe063 	ldurh	w3, [x3, #-2]
    fffec0d8:	6b02007f 	cmp	w3, w2
    fffec0dc:	54fffee0 	b.eq	fffec0b8 <pm_api_pinctrl_get_function_groups+0x4c>  // b.none
    fffec0e0:	6b00029f 	cmp	w20, w0
    fffec0e4:	54ffff48 	b.hi	fffec0cc <pm_api_pinctrl_get_function_groups+0x60>  // b.pmore
    fffec0e8:	d2800000 	mov	x0, #0x0                   	// #0
    fffec0ec:	529fffe3 	mov	w3, #0xffff                	// #65535
    fffec0f0:	0b000282 	add	w2, w20, w0
    fffec0f4:	78627822 	ldrh	w2, [x1, x2, lsl #1]
    fffec0f8:	78207aa2 	strh	w2, [x21, x0, lsl #1]
    fffec0fc:	6b03005f 	cmp	w2, w3
    fffec100:	54fffdc0 	b.eq	fffec0b8 <pm_api_pinctrl_get_function_groups+0x4c>  // b.none
    fffec104:	91000400 	add	x0, x0, #0x1
    fffec108:	f100181f 	cmp	x0, #0x6
    fffec10c:	54ffff21 	b.ne	fffec0f0 <pm_api_pinctrl_get_function_groups+0x84>  // b.any
    fffec110:	17ffffea 	b	fffec0b8 <pm_api_pinctrl_get_function_groups+0x4c>
    fffec114:	d2800000 	mov	x0, #0x0                   	// #0
    fffec118:	529fffe2 	mov	w2, #0xffff                	// #65535
    fffec11c:	17fffff1 	b	fffec0e0 <pm_api_pinctrl_get_function_groups+0x74>
    fffec120:	52800020 	mov	w0, #0x1                   	// #1
    fffec124:	d65f03c0 	ret

00000000fffec128 <pm_api_pinctrl_get_pin_groups>:
    fffec128:	7101341f 	cmp	w0, #0x4d
    fffec12c:	54000548 	b.hi	fffec1d4 <pm_api_pinctrl_get_pin_groups+0xac>  // b.pmore
    fffec130:	a9bd7bfd 	stp	x29, x30, [sp, #-48]!
    fffec134:	910003fd 	mov	x29, sp
    fffec138:	a90153f3 	stp	x19, x20, [sp, #16]
    fffec13c:	aa0203f4 	mov	x20, x2
    fffec140:	f90013f5 	str	x21, [sp, #32]
    fffec144:	2a0103f3 	mov	w19, w1
    fffec148:	2a0003f5 	mov	w21, w0
    fffec14c:	12800001 	mov	w1, #0xffffffff            	// #-1
    fffec150:	d2800182 	mov	x2, #0xc                   	// #12
    fffec154:	aa1403e0 	mov	x0, x20
    fffec158:	9400119b 	bl	ffff07c4 <memset>
    fffec15c:	d0000020 	adrp	x0, ffff2000 <__TEXT_END__>
    fffec160:	910a4000 	add	x0, x0, #0x290
    fffec164:	f8755801 	ldr	x1, [x0, w21, uxtw #3]
    fffec168:	b5000301 	cbnz	x1, fffec1c8 <pm_api_pinctrl_get_pin_groups+0xa0>
    fffec16c:	52800000 	mov	w0, #0x0                   	// #0
    fffec170:	f94013f5 	ldr	x21, [sp, #32]
    fffec174:	a94153f3 	ldp	x19, x20, [sp, #16]
    fffec178:	a8c37bfd 	ldp	x29, x30, [sp], #48
    fffec17c:	d65f03c0 	ret
    fffec180:	91000400 	add	x0, x0, #0x1
    fffec184:	8b000423 	add	x3, x1, x0, lsl #1
    fffec188:	785fe063 	ldurh	w3, [x3, #-2]
    fffec18c:	6b02007f 	cmp	w3, w2
    fffec190:	54fffee0 	b.eq	fffec16c <pm_api_pinctrl_get_pin_groups+0x44>  // b.none
    fffec194:	6b00027f 	cmp	w19, w0
    fffec198:	54ffff48 	b.hi	fffec180 <pm_api_pinctrl_get_pin_groups+0x58>  // b.pmore
    fffec19c:	d2800000 	mov	x0, #0x0                   	// #0
    fffec1a0:	529fffe3 	mov	w3, #0xffff                	// #65535
    fffec1a4:	0b000262 	add	w2, w19, w0
    fffec1a8:	78627822 	ldrh	w2, [x1, x2, lsl #1]
    fffec1ac:	78207a82 	strh	w2, [x20, x0, lsl #1]
    fffec1b0:	6b03005f 	cmp	w2, w3
    fffec1b4:	54fffdc0 	b.eq	fffec16c <pm_api_pinctrl_get_pin_groups+0x44>  // b.none
    fffec1b8:	91000400 	add	x0, x0, #0x1
    fffec1bc:	f100181f 	cmp	x0, #0x6
    fffec1c0:	54ffff21 	b.ne	fffec1a4 <pm_api_pinctrl_get_pin_groups+0x7c>  // b.any
    fffec1c4:	17ffffea 	b	fffec16c <pm_api_pinctrl_get_pin_groups+0x44>
    fffec1c8:	d2800000 	mov	x0, #0x0                   	// #0
    fffec1cc:	529fffe2 	mov	w2, #0xffff                	// #65535
    fffec1d0:	17fffff1 	b	fffec194 <pm_api_pinctrl_get_pin_groups+0x6c>
    fffec1d4:	52800020 	mov	w0, #0x1                   	// #1
    fffec1d8:	d65f03c0 	ret

00000000fffec1dc <pm_ioctl_sd_dll_reset>:
    fffec1dc:	a9be7bfd 	stp	x29, x30, [sp, #-32]!
    fffec1e0:	71009c1f 	cmp	w0, #0x27
    fffec1e4:	910003fd 	mov	x29, sp
    fffec1e8:	a90153f3 	stp	x19, x20, [sp, #16]
    fffec1ec:	54000340 	b.eq	fffec254 <pm_ioctl_sd_dll_reset+0x78>  // b.none
    fffec1f0:	7100a01f 	cmp	w0, #0x28
    fffec1f4:	54000341 	b.ne	fffec25c <pm_ioctl_sd_dll_reset+0x80>  // b.any
    fffec1f8:	52a00094 	mov	w20, #0x40000               	// #262144
    fffec1fc:	7100043f 	cmp	w1, #0x1
    fffec200:	540001c0 	b.eq	fffec238 <pm_ioctl_sd_dll_reset+0x5c>  // b.none
    fffec204:	34000061 	cbz	w1, fffec210 <pm_ioctl_sd_dll_reset+0x34>
    fffec208:	7100083f 	cmp	w1, #0x2
    fffec20c:	54000281 	b.ne	fffec25c <pm_ioctl_sd_dll_reset+0x80>  // b.any
    fffec210:	d2806b00 	mov	x0, #0x358                 	// #856
    fffec214:	2a0103f3 	mov	w19, w1
    fffec218:	2a1403e2 	mov	w2, w20
    fffec21c:	2a1403e1 	mov	w1, w20
    fffec220:	f2bfe300 	movk	x0, #0xff18, lsl #16
    fffec224:	97fffcc8 	bl	fffeb544 <pm_mmio_write>
    fffec228:	350001c0 	cbnz	w0, fffec260 <pm_ioctl_sd_dll_reset+0x84>
    fffec22c:	340001b3 	cbz	w19, fffec260 <pm_ioctl_sd_dll_reset+0x84>
    fffec230:	52800020 	mov	w0, #0x1                   	// #1
    fffec234:	94000c62 	bl	fffef3bc <mdelay>
    fffec238:	2a1403e1 	mov	w1, w20
    fffec23c:	d2806b00 	mov	x0, #0x358                 	// #856
    fffec240:	a94153f3 	ldp	x19, x20, [sp, #16]
    fffec244:	52800002 	mov	w2, #0x0                   	// #0
    fffec248:	a8c27bfd 	ldp	x29, x30, [sp], #32
    fffec24c:	f2bfe300 	movk	x0, #0xff18, lsl #16
    fffec250:	17fffcbd 	b	fffeb544 <pm_mmio_write>
    fffec254:	52800094 	mov	w20, #0x4                   	// #4
    fffec258:	17ffffe9 	b	fffec1fc <pm_ioctl_sd_dll_reset+0x20>
    fffec25c:	52800020 	mov	w0, #0x1                   	// #1
    fffec260:	a94153f3 	ldp	x19, x20, [sp, #16]
    fffec264:	a8c27bfd 	ldp	x29, x30, [sp], #32
    fffec268:	d65f03c0 	ret

00000000fffec26c <pm_api_ioctl>:
    fffec26c:	a9b87bfd 	stp	x29, x30, [sp, #-128]!
    fffec270:	7100483f 	cmp	w1, #0x12
    fffec274:	910003fd 	mov	x29, sp
    fffec278:	a90153f3 	stp	x19, x20, [sp, #16]
    fffec27c:	a9025bf5 	stp	x21, x22, [sp, #32]
    fffec280:	f9001bf7 	str	x23, [sp, #48]
    fffec284:	540023a8 	b.hi	fffec6f8 <pm_api_ioctl+0x48c>  // b.pmore
    fffec288:	2a0003f5 	mov	w21, w0
    fffec28c:	aa0403f7 	mov	x23, x4
    fffec290:	d0000020 	adrp	x0, ffff2000 <__TEXT_END__>
    fffec294:	2a0303f6 	mov	w22, w3
    fffec298:	2a0203f4 	mov	w20, w2
    fffec29c:	91140000 	add	x0, x0, #0x500
    fffec2a0:	78615800 	ldrh	w0, [x0, w1, uxtw #1]
    fffec2a4:	10000061 	adr	x1, fffec2b0 <pm_api_ioctl+0x44>
    fffec2a8:	8b20a820 	add	x0, x1, w0, sxth #2
    fffec2ac:	d61f0000 	br	x0
    fffec2b0:	d2bff340 	mov	x0, #0xff9a0000            	// #4288282624
    fffec2b4:	b9400000 	ldr	w0, [x0]
    fffec2b8:	37180120 	tbnz	w0, #3, fffec2dc <pm_api_ioctl+0x70>
    fffec2bc:	b900009f 	str	wzr, [x4]
    fffec2c0:	52800013 	mov	w19, #0x0                   	// #0
    fffec2c4:	2a1303e0 	mov	w0, w19
    fffec2c8:	f9401bf7 	ldr	x23, [sp, #48]
    fffec2cc:	a94153f3 	ldp	x19, x20, [sp, #16]
    fffec2d0:	a9425bf5 	ldp	x21, x22, [sp, #32]
    fffec2d4:	a8c87bfd 	ldp	x29, x30, [sp], #128
    fffec2d8:	d65f03c0 	ret
    fffec2dc:	52800020 	mov	w0, #0x1                   	// #1
    fffec2e0:	b9000080 	str	w0, [x4]
    fffec2e4:	17fffff7 	b	fffec2c0 <pm_api_ioctl+0x54>
    fffec2e8:	d2804780 	mov	x0, #0x23c                 	// #572
    fffec2ec:	f2bfebc0 	movk	x0, #0xff5e, lsl #16
    fffec2f0:	b9400000 	ldr	w0, [x0]
    fffec2f4:	37102060 	tbnz	w0, #2, fffec700 <pm_api_ioctl+0x494>
    fffec2f8:	d2bff340 	mov	x0, #0xff9a0000            	// #4288282624
    fffec2fc:	7100045f 	cmp	w2, #0x1
    fffec300:	b9400000 	ldr	w0, [x0]
    fffec304:	540000e1 	b.ne	fffec320 <pm_api_ioctl+0xb4>  // b.any
    fffec308:	12800a01 	mov	w1, #0xffffffaf            	// #-81
    fffec30c:	0a010000 	and	w0, w0, w1
    fffec310:	321d0000 	orr	w0, w0, #0x8
    fffec314:	d2bff341 	mov	x1, #0xff9a0000            	// #4288282624
    fffec318:	b9000020 	str	w0, [x1]
    fffec31c:	17ffffe9 	b	fffec2c0 <pm_api_ioctl+0x54>
    fffec320:	35001f42 	cbnz	w2, fffec708 <pm_api_ioctl+0x49c>
    fffec324:	121c7800 	and	w0, w0, #0xfffffff7
    fffec328:	52800a01 	mov	w1, #0x50                  	// #80
    fffec32c:	2a010000 	orr	w0, w0, w1
    fffec330:	17fffff9 	b	fffec314 <pm_api_ioctl+0xa8>
    fffec334:	71001ebf 	cmp	w21, #0x7
    fffec338:	54000160 	b.eq	fffec364 <pm_api_ioctl+0xf8>  // b.none
    fffec33c:	710022bf 	cmp	w21, #0x8
    fffec340:	54001e41 	b.ne	fffec708 <pm_api_ioctl+0x49c>  // b.any
    fffec344:	52804000 	mov	w0, #0x200                 	// #512
    fffec348:	72bff340 	movk	w0, #0xff9a, lsl #16
    fffec34c:	2a0003e0 	mov	w0, w0
    fffec350:	b9400001 	ldr	w1, [x0]
    fffec354:	350000d4 	cbnz	w20, fffec36c <pm_api_ioctl+0x100>
    fffec358:	121d7821 	and	w1, w1, #0xfffffffb
    fffec35c:	b9000001 	str	w1, [x0]
    fffec360:	17ffffd8 	b	fffec2c0 <pm_api_ioctl+0x54>
    fffec364:	52802000 	mov	w0, #0x100                 	// #256
    fffec368:	17fffff8 	b	fffec348 <pm_api_ioctl+0xdc>
    fffec36c:	7100069f 	cmp	w20, #0x1
    fffec370:	54001cc1 	b.ne	fffec708 <pm_api_ioctl+0x49c>  // b.any
    fffec374:	321e0021 	orr	w1, w1, #0x4
    fffec378:	17fffff9 	b	fffec35c <pm_api_ioctl+0xf0>
    fffec37c:	d2bff341 	mov	x1, #0xff9a0000            	// #4288282624
    fffec380:	b9400020 	ldr	w0, [x1]
    fffec384:	35000062 	cbnz	w2, fffec390 <pm_api_ioctl+0x124>
    fffec388:	12197800 	and	w0, w0, #0xffffffbf
    fffec38c:	17ffffe3 	b	fffec318 <pm_api_ioctl+0xac>
    fffec390:	7100045f 	cmp	w2, #0x1
    fffec394:	54001ba1 	b.ne	fffec708 <pm_api_ioctl+0x49c>  // b.any
    fffec398:	321a0000 	orr	w0, w0, #0x40
    fffec39c:	17ffffdf 	b	fffec318 <pm_api_ioctl+0xac>
    fffec3a0:	7100047f 	cmp	w3, #0x1
    fffec3a4:	7a429842 	ccmp	w2, #0x2, #0x2, ls  // ls = plast
    fffec3a8:	54001b08 	b.hi	fffec708 <pm_api_ioctl+0x49c>  // b.pmore
    fffec3ac:	1ac22062 	lsl	w2, w3, w2
    fffec3b0:	528000e1 	mov	w1, #0x7                   	// #7
    fffec3b4:	d2807200 	mov	x0, #0x390                 	// #912
    fffec3b8:	f2bfe300 	movk	x0, #0xff18, lsl #16
    fffec3bc:	97fffc62 	bl	fffeb544 <pm_mmio_write>
    fffec3c0:	1400002c 	b	fffec470 <pm_api_ioctl+0x204>
    fffec3c4:	7100045f 	cmp	w2, #0x1
    fffec3c8:	54001a08 	b.hi	fffec708 <pm_api_ioctl+0x49c>  // b.pmore
    fffec3cc:	510076b5 	sub	w21, w21, #0x1d
    fffec3d0:	71000ebf 	cmp	w21, #0x3
    fffec3d4:	540019a8 	b.hi	fffec708 <pm_api_ioctl+0x49c>  // b.pmore
    fffec3d8:	d0000021 	adrp	x1, ffff2000 <__TEXT_END__>
    fffec3dc:	9114a021 	add	x1, x1, #0x528
    fffec3e0:	38754820 	ldrb	w0, [x1, w21, uxtw]
    fffec3e4:	10000061 	adr	x1, fffec3f0 <pm_api_ioctl+0x184>
    fffec3e8:	8b208820 	add	x0, x1, w0, sxtb #2
    fffec3ec:	d61f0000 	br	x0
    fffec3f0:	52800035 	mov	w21, #0x1                   	// #1
    fffec3f4:	350001b4 	cbnz	w20, fffec428 <pm_api_ioctl+0x1bc>
    fffec3f8:	0b150ab5 	add	w21, w21, w21, lsl #2
    fffec3fc:	52800002 	mov	w2, #0x0                   	// #0
    fffec400:	52800081 	mov	w1, #0x4                   	// #4
    fffec404:	1ad52021 	lsl	w1, w1, w21
    fffec408:	d2806100 	mov	x0, #0x308                 	// #776
    fffec40c:	17ffffeb 	b	fffec3b8 <pm_api_ioctl+0x14c>
    fffec410:	52800055 	mov	w21, #0x2                   	// #2
    fffec414:	17fffff8 	b	fffec3f4 <pm_api_ioctl+0x188>
    fffec418:	52800075 	mov	w21, #0x3                   	// #3
    fffec41c:	17fffff6 	b	fffec3f4 <pm_api_ioctl+0x188>
    fffec420:	52800015 	mov	w21, #0x0                   	// #0
    fffec424:	17fffff4 	b	fffec3f4 <pm_api_ioctl+0x188>
    fffec428:	531f7aa1 	lsl	w1, w21, #1
    fffec42c:	52800060 	mov	w0, #0x3                   	// #3
    fffec430:	52800022 	mov	w2, #0x1                   	// #1
    fffec434:	1ac12042 	lsl	w2, w2, w1
    fffec438:	1ac12001 	lsl	w1, w0, w1
    fffec43c:	d2806c00 	mov	x0, #0x360                 	// #864
    fffec440:	f2bfe300 	movk	x0, #0xff18, lsl #16
    fffec444:	97fffc40 	bl	fffeb544 <pm_mmio_write>
    fffec448:	2a0003f3 	mov	w19, w0
    fffec44c:	35fff3c0 	cbnz	w0, fffec2c4 <pm_api_ioctl+0x58>
    fffec450:	0b150ab5 	add	w21, w21, w21, lsl #2
    fffec454:	528000a2 	mov	w2, #0x5                   	// #5
    fffec458:	528001e1 	mov	w1, #0xf                   	// #15
    fffec45c:	1ad52042 	lsl	w2, w2, w21
    fffec460:	17ffffe9 	b	fffec404 <pm_api_ioctl+0x198>
    fffec464:	2a0203e1 	mov	w1, w2
    fffec468:	2a1503e0 	mov	w0, w21
    fffec46c:	97ffff5c 	bl	fffec1dc <pm_ioctl_sd_dll_reset>
    fffec470:	2a0003f3 	mov	w19, w0
    fffec474:	17ffff94 	b	fffec2c4 <pm_api_ioctl+0x58>
    fffec478:	71009ebf 	cmp	w21, #0x27
    fffec47c:	540005a0 	b.eq	fffec530 <pm_api_ioctl+0x2c4>  // b.none
    fffec480:	7100a2bf 	cmp	w21, #0x28
    fffec484:	54001421 	b.ne	fffec708 <pm_api_ioctl+0x49c>  // b.any
    fffec488:	52800217 	mov	w23, #0x10                  	// #16
    fffec48c:	52800001 	mov	w1, #0x0                   	// #0
    fffec490:	2a1503e0 	mov	w0, w21
    fffec494:	97ffff52 	bl	fffec1dc <pm_ioctl_sd_dll_reset>
    fffec498:	2a0003f3 	mov	w19, w0
    fffec49c:	35fff140 	cbnz	w0, fffec2c4 <pm_api_ioctl+0x58>
    fffec4a0:	350004d4 	cbnz	w20, fffec538 <pm_api_ioctl+0x2cc>
    fffec4a4:	52804014 	mov	w20, #0x200                 	// #512
    fffec4a8:	d2806280 	mov	x0, #0x314                 	// #788
    fffec4ac:	1ad72294 	lsl	w20, w20, w23
    fffec4b0:	f2bfe300 	movk	x0, #0xff18, lsl #16
    fffec4b4:	2a1403e2 	mov	w2, w20
    fffec4b8:	2a1403e1 	mov	w1, w20
    fffec4bc:	97fffc22 	bl	fffeb544 <pm_mmio_write>
    fffec4c0:	2a0003f3 	mov	w19, w0
    fffec4c4:	350002e0 	cbnz	w0, fffec520 <pm_api_ioctl+0x2b4>
    fffec4c8:	52802002 	mov	w2, #0x100                 	// #256
    fffec4cc:	d2806280 	mov	x0, #0x314                 	// #788
    fffec4d0:	1ad72042 	lsl	w2, w2, w23
    fffec4d4:	f2bfe300 	movk	x0, #0xff18, lsl #16
    fffec4d8:	2a0203e1 	mov	w1, w2
    fffec4dc:	97fffc1a 	bl	fffeb544 <pm_mmio_write>
    fffec4e0:	2a0003f3 	mov	w19, w0
    fffec4e4:	350001e0 	cbnz	w0, fffec520 <pm_api_ioctl+0x2b4>
    fffec4e8:	52801fe1 	mov	w1, #0xff                  	// #255
    fffec4ec:	d2806280 	mov	x0, #0x314                 	// #788
    fffec4f0:	1ad722c2 	lsl	w2, w22, w23
    fffec4f4:	f2bfe300 	movk	x0, #0xff18, lsl #16
    fffec4f8:	1ad72021 	lsl	w1, w1, w23
    fffec4fc:	97fffc12 	bl	fffeb544 <pm_mmio_write>
    fffec500:	2a0003f3 	mov	w19, w0
    fffec504:	350000e0 	cbnz	w0, fffec520 <pm_api_ioctl+0x2b4>
    fffec508:	2a1403e1 	mov	w1, w20
    fffec50c:	52800002 	mov	w2, #0x0                   	// #0
    fffec510:	d2806280 	mov	x0, #0x314                 	// #788
    fffec514:	f2bfe300 	movk	x0, #0xff18, lsl #16
    fffec518:	97fffc0b 	bl	fffeb544 <pm_mmio_write>
    fffec51c:	2a0003f3 	mov	w19, w0
    fffec520:	52800021 	mov	w1, #0x1                   	// #1
    fffec524:	2a1503e0 	mov	w0, w21
    fffec528:	97ffff2d 	bl	fffec1dc <pm_ioctl_sd_dll_reset>
    fffec52c:	17ffff66 	b	fffec2c4 <pm_api_ioctl+0x58>
    fffec530:	52800017 	mov	w23, #0x0                   	// #0
    fffec534:	17ffffd6 	b	fffec48c <pm_api_ioctl+0x220>
    fffec538:	7100069f 	cmp	w20, #0x1
    fffec53c:	540001c1 	b.ne	fffec574 <pm_api_ioctl+0x308>  // b.any
    fffec540:	52800802 	mov	w2, #0x40                  	// #64
    fffec544:	d2806300 	mov	x0, #0x318                 	// #792
    fffec548:	1ad72042 	lsl	w2, w2, w23
    fffec54c:	f2bfe300 	movk	x0, #0xff18, lsl #16
    fffec550:	2a0203e1 	mov	w1, w2
    fffec554:	97fffbfc 	bl	fffeb544 <pm_mmio_write>
    fffec558:	2a0003f3 	mov	w19, w0
    fffec55c:	35fffe20 	cbnz	w0, fffec520 <pm_api_ioctl+0x2b4>
    fffec560:	528007e1 	mov	w1, #0x3f                  	// #63
    fffec564:	1ad722c2 	lsl	w2, w22, w23
    fffec568:	1ad72021 	lsl	w1, w1, w23
    fffec56c:	d2806300 	mov	x0, #0x318                 	// #792
    fffec570:	17ffffe9 	b	fffec514 <pm_api_ioctl+0x2a8>
    fffec574:	52800033 	mov	w19, #0x1                   	// #1
    fffec578:	17ffffea 	b	fffec520 <pm_api_ioctl+0x2b4>
    fffec57c:	2a0303e1 	mov	w1, w3
    fffec580:	2a0203e0 	mov	w0, w2
    fffec584:	940001d9 	bl	fffecce8 <pm_clock_set_pll_mode>
    fffec588:	17ffffba 	b	fffec470 <pm_api_ioctl+0x204>
    fffec58c:	aa0403e1 	mov	x1, x4
    fffec590:	2a0203e0 	mov	w0, w2
    fffec594:	940001e2 	bl	fffecd1c <pm_clock_get_pll_mode>
    fffec598:	17ffffb6 	b	fffec470 <pm_api_ioctl+0x204>
    fffec59c:	910103a1 	add	x1, x29, #0x40
    fffec5a0:	2a0203e0 	mov	w0, w2
    fffec5a4:	94000159 	bl	fffecb08 <pm_clock_get_pll_node_id>
    fffec5a8:	2a0003f3 	mov	w19, w0
    fffec5ac:	35ffe8c0 	cbnz	w0, fffec2c4 <pm_api_ioctl+0x58>
    fffec5b0:	b94043a0 	ldr	w0, [x29, #64]
    fffec5b4:	2a1603e2 	mov	w2, w22
    fffec5b8:	52800041 	mov	w1, #0x2                   	// #2
    fffec5bc:	97fffda0 	bl	fffebc3c <pm_pll_set_parameter>
    fffec5c0:	17ffffac 	b	fffec470 <pm_api_ioctl+0x204>
    fffec5c4:	910103a1 	add	x1, x29, #0x40
    fffec5c8:	2a0203e0 	mov	w0, w2
    fffec5cc:	9400014f 	bl	fffecb08 <pm_clock_get_pll_node_id>
    fffec5d0:	2a0003f3 	mov	w19, w0
    fffec5d4:	35ffe780 	cbnz	w0, fffec2c4 <pm_api_ioctl+0x58>
    fffec5d8:	b94043a0 	ldr	w0, [x29, #64]
    fffec5dc:	aa1703e2 	mov	x2, x23
    fffec5e0:	52800041 	mov	w1, #0x2                   	// #2
    fffec5e4:	97fffdd5 	bl	fffebd38 <pm_pll_get_parameter>
    fffec5e8:	17ffffa2 	b	fffec470 <pm_api_ioctl+0x204>
    fffec5ec:	71000c5f 	cmp	w2, #0x3
    fffec5f0:	540008c8 	b.hi	fffec708 <pm_api_ioctl+0x49c>  // b.pmore
    fffec5f4:	52800600 	mov	w0, #0x30                  	// #48
    fffec5f8:	72bffb00 	movk	w0, #0xffd8, lsl #16
    fffec5fc:	2a1603e2 	mov	w2, w22
    fffec600:	0b140800 	add	w0, w0, w20, lsl #2
    fffec604:	12800001 	mov	w1, #0xffffffff            	// #-1
    fffec608:	17ffff6d 	b	fffec3bc <pm_api_ioctl+0x150>
    fffec60c:	71000c5f 	cmp	w2, #0x3
    fffec610:	540007c8 	b.hi	fffec708 <pm_api_ioctl+0x49c>  // b.pmore
    fffec614:	52800600 	mov	w0, #0x30                  	// #48
    fffec618:	72bffb00 	movk	w0, #0xffd8, lsl #16
    fffec61c:	aa1703e1 	mov	x1, x23
    fffec620:	0b140800 	add	w0, w0, w20, lsl #2
    fffec624:	97fffbd6 	bl	fffeb57c <pm_mmio_read>
    fffec628:	17ffff92 	b	fffec470 <pm_api_ioctl+0x204>
    fffec62c:	71000c5f 	cmp	w2, #0x3
    fffec630:	540006c8 	b.hi	fffec708 <pm_api_ioctl+0x49c>  // b.pmore
    fffec634:	52800a00 	mov	w0, #0x50                  	// #80
    fffec638:	17fffff0 	b	fffec5f8 <pm_api_ioctl+0x38c>
    fffec63c:	71000c5f 	cmp	w2, #0x3
    fffec640:	54000648 	b.hi	fffec708 <pm_api_ioctl+0x49c>  // b.pmore
    fffec644:	52800a00 	mov	w0, #0x50                  	// #80
    fffec648:	17fffff4 	b	fffec618 <pm_api_ioctl+0x3ac>
    fffec64c:	d2804a00 	mov	x0, #0x250                 	// #592
    fffec650:	52804042 	mov	w2, #0x202                 	// #514
    fffec654:	5281e1e1 	mov	w1, #0xf0f                 	// #3855
    fffec658:	f2bfebc0 	movk	x0, #0xff5e, lsl #16
    fffec65c:	97fffbba 	bl	fffeb544 <pm_mmio_write>
    fffec660:	2a0003f3 	mov	w19, w0
    fffec664:	35ffe300 	cbnz	w0, fffec2c4 <pm_api_ioctl+0x58>
    fffec668:	52800020 	mov	w0, #0x1                   	// #1
    fffec66c:	94000b54 	bl	fffef3bc <mdelay>
    fffec670:	d2804a00 	mov	x0, #0x250                 	// #592
    fffec674:	52800042 	mov	w2, #0x2                   	// #2
    fffec678:	5281e1e1 	mov	w1, #0xf0f                 	// #3855
    fffec67c:	f2bfebc0 	movk	x0, #0xff5e, lsl #16
    fffec680:	97fffbb1 	bl	fffeb544 <pm_mmio_write>
    fffec684:	2a0003f3 	mov	w19, w0
    fffec688:	35ffe1e0 	cbnz	w0, fffec2c4 <pm_api_ioctl+0x58>
    fffec68c:	52800020 	mov	w0, #0x1                   	// #1
    fffec690:	94000b4b 	bl	fffef3bc <mdelay>
    fffec694:	d2804a00 	mov	x0, #0x250                 	// #592
    fffec698:	52804042 	mov	w2, #0x202                 	// #514
    fffec69c:	5281e1e1 	mov	w1, #0xf0f                 	// #3855
    fffec6a0:	f2bfebc0 	movk	x0, #0xff5e, lsl #16
    fffec6a4:	17ffff46 	b	fffec3bc <pm_api_ioctl+0x150>
    fffec6a8:	d2800800 	mov	x0, #0x40                  	// #64
    fffec6ac:	52800021 	mov	w1, #0x1                   	// #1
    fffec6b0:	f2bffb00 	movk	x0, #0xffd8, lsl #16
    fffec6b4:	17ffff42 	b	fffec3bc <pm_api_ioctl+0x150>
    fffec6b8:	910103a3 	add	x3, x29, #0x40
    fffec6bc:	d2800802 	mov	x2, #0x40                  	// #64
    fffec6c0:	aa0303e0 	mov	x0, x3
    fffec6c4:	d0000021 	adrp	x1, ffff2000 <__TEXT_END__>
    fffec6c8:	9114b021 	add	x1, x1, #0x52c
    fffec6cc:	94001024 	bl	ffff075c <memcpy>
    fffec6d0:	aa0003e3 	mov	x3, x0
    fffec6d4:	71003e9f 	cmp	w20, #0xf
    fffec6d8:	54000188 	b.hi	fffec708 <pm_api_ioctl+0x49c>  // b.pmore
    fffec6dc:	5281e000 	mov	w0, #0xf00                 	// #3840
    fffec6e0:	7100369f 	cmp	w20, #0xd
    fffec6e4:	52800061 	mov	w1, #0x3                   	// #3
    fffec6e8:	2a1603e2 	mov	w2, w22
    fffec6ec:	1a803021 	csel	w1, w1, w0, cc  // cc = lo, ul, last
    fffec6f0:	b8745860 	ldr	w0, [x3, w20, uxtw #2]
    fffec6f4:	17ffff32 	b	fffec3bc <pm_api_ioctl+0x150>
    fffec6f8:	52800093 	mov	w19, #0x4                   	// #4
    fffec6fc:	17fffef2 	b	fffec2c4 <pm_api_ioctl+0x58>
    fffec700:	5280fa53 	mov	w19, #0x7d2                 	// #2002
    fffec704:	17fffef0 	b	fffec2c4 <pm_api_ioctl+0x58>
    fffec708:	52800033 	mov	w19, #0x1                   	// #1
    fffec70c:	17fffeee 	b	fffec2c4 <pm_api_ioctl+0x58>

00000000fffec710 <pm_clock_valid>:
    fffec710:	d0000022 	adrp	x2, ffff2000 <__TEXT_END__>
    fffec714:	9115e042 	add	x2, x2, #0x578
    fffec718:	d2800001 	mov	x1, #0x0                   	// #0
    fffec71c:	b8617843 	ldr	w3, [x2, x1, lsl #2]
    fffec720:	6b00007f 	cmp	w3, w0
    fffec724:	540000c0 	b.eq	fffec73c <pm_clock_valid+0x2c>  // b.none
    fffec728:	91000421 	add	x1, x1, #0x1
    fffec72c:	f100583f 	cmp	x1, #0x16
    fffec730:	54ffff61 	b.ne	fffec71c <pm_clock_valid+0xc>  // b.any
    fffec734:	52800020 	mov	w0, #0x1                   	// #1
    fffec738:	d65f03c0 	ret
    fffec73c:	52800000 	mov	w0, #0x0                   	// #0
    fffec740:	17fffffe 	b	fffec738 <pm_clock_valid+0x28>

00000000fffec744 <pm_api_clock_get_num_clocks>:
    fffec744:	528019e1 	mov	w1, #0xcf                  	// #207
    fffec748:	b9000001 	str	w1, [x0]
    fffec74c:	52800000 	mov	w0, #0x0                   	// #0
    fffec750:	d65f03c0 	ret

00000000fffec754 <pm_api_clock_get_name>:
    fffec754:	aa0103e5 	mov	x5, x1
    fffec758:	71033c1f 	cmp	w0, #0xcf
    fffec75c:	540000c1 	b.ne	fffec774 <pm_api_clock_get_name+0x20>  // b.any
    fffec760:	d0000021 	adrp	x1, ffff2000 <__TEXT_END__>
    fffec764:	aa0503e0 	mov	x0, x5
    fffec768:	9115b021 	add	x1, x1, #0x56c
    fffec76c:	d2800162 	mov	x2, #0xb                   	// #11
    fffec770:	14000ffb 	b	ffff075c <memcpy>
    fffec774:	2a0003e4 	mov	w4, w0
    fffec778:	a9bf7bfd 	stp	x29, x30, [sp, #-16]!
    fffec77c:	910003fd 	mov	x29, sp
    fffec780:	97ffffe4 	bl	fffec710 <pm_clock_valid>
    fffec784:	72001c1f 	tst	w0, #0xff
    fffec788:	540000c1 	b.ne	fffec7a0 <pm_api_clock_get_name+0x4c>  // b.any
    fffec78c:	a8c17bfd 	ldp	x29, x30, [sp], #16
    fffec790:	d28001e2 	mov	x2, #0xf                   	// #15
    fffec794:	52800001 	mov	w1, #0x0                   	// #0
    fffec798:	aa0503e0 	mov	x0, x5
    fffec79c:	1400100a 	b	ffff07c4 <memset>
    fffec7a0:	7101c09f 	cmp	w4, #0x70
    fffec7a4:	54000128 	b.hi	fffec7c8 <pm_api_clock_get_name+0x74>  // b.pmore
    fffec7a8:	90000040 	adrp	x0, ffff4000 <pinctrl_functions+0x1d8>
    fffec7ac:	91380000 	add	x0, x0, #0xe00
    fffec7b0:	d28001e2 	mov	x2, #0xf                   	// #15
    fffec7b4:	52800501 	mov	w1, #0x28                  	// #40
    fffec7b8:	9ba10081 	umaddl	x1, w4, w1, x0
    fffec7bc:	aa0503e0 	mov	x0, x5
    fffec7c0:	a8c17bfd 	ldp	x29, x30, [sp], #16
    fffec7c4:	17ffffeb 	b	fffec770 <pm_api_clock_get_name+0x1c>
    fffec7c8:	b0000040 	adrp	x0, ffff5000 <clocks+0x200>
    fffec7cc:	5101c484 	sub	w4, w4, #0x71
    fffec7d0:	d28001e2 	mov	x2, #0xf                   	// #15
    fffec7d4:	913fa000 	add	x0, x0, #0xfe8
    fffec7d8:	528001e1 	mov	w1, #0xf                   	// #15
    fffec7dc:	17fffff7 	b	fffec7b8 <pm_api_clock_get_name+0x64>

00000000fffec7e0 <pm_api_clock_get_topology>:
    fffec7e0:	a9bd7bfd 	stp	x29, x30, [sp, #-48]!
    fffec7e4:	910003fd 	mov	x29, sp
    fffec7e8:	a90153f3 	stp	x19, x20, [sp, #16]
    fffec7ec:	2a0003f3 	mov	w19, w0
    fffec7f0:	f90013f5 	str	x21, [sp, #32]
    fffec7f4:	aa0203f4 	mov	x20, x2
    fffec7f8:	2a0103f5 	mov	w21, w1
    fffec7fc:	97ffffc5 	bl	fffec710 <pm_clock_valid>
    fffec800:	72001c1f 	tst	w0, #0xff
    fffec804:	540004e0 	b.eq	fffec8a0 <pm_api_clock_get_topology+0xc0>  // b.none
    fffec808:	7101c27f 	cmp	w19, #0x70
    fffec80c:	540004e8 	b.hi	fffec8a8 <pm_api_clock_get_topology+0xc8>  // b.pmore
    fffec810:	52800001 	mov	w1, #0x0                   	// #0
    fffec814:	d2800182 	mov	x2, #0xc                   	// #12
    fffec818:	aa1403e0 	mov	x0, x20
    fffec81c:	94000fea 	bl	ffff07c4 <memset>
    fffec820:	90000040 	adrp	x0, ffff4000 <pinctrl_functions+0x1d8>
    fffec824:	91380000 	add	x0, x0, #0xe00
    fffec828:	d2800501 	mov	x1, #0x28                  	// #40
    fffec82c:	9b010273 	madd	x19, x19, x1, x0
    fffec830:	39403e61 	ldrb	w1, [x19, #15]
    fffec834:	6b15003f 	cmp	w1, w21
    fffec838:	540000c8 	b.hi	fffec850 <pm_api_clock_get_topology+0x70>  // b.pmore
    fffec83c:	52800000 	mov	w0, #0x0                   	// #0
    fffec840:	a94153f3 	ldp	x19, x20, [sp, #16]
    fffec844:	f94013f5 	ldr	x21, [sp, #32]
    fffec848:	a8c37bfd 	ldp	x29, x30, [sp], #48
    fffec84c:	d65f03c0 	ret
    fffec850:	f9401260 	ldr	x0, [x19, #32]
    fffec854:	4b150021 	sub	w1, w1, w21
    fffec858:	d2800002 	mov	x2, #0x0                   	// #0
    fffec85c:	8b354c00 	add	x0, x0, w21, uxtw #3
    fffec860:	eb01005f 	cmp	x2, x1
    fffec864:	54fffec0 	b.eq	fffec83c <pm_api_clock_get_topology+0x5c>  // b.none
    fffec868:	79400404 	ldrh	w4, [x0, #2]
    fffec86c:	91002000 	add	x0, x0, #0x8
    fffec870:	785f8003 	ldurh	w3, [x0, #-8]
    fffec874:	53047c85 	lsr	w5, w4, #4
    fffec878:	121c0ca5 	and	w5, w5, #0xf0
    fffec87c:	2a0320a3 	orr	w3, w5, w3, lsl #8
    fffec880:	385fc005 	ldurb	w5, [x0, #-4]
    fffec884:	2a0460a4 	orr	w4, w5, w4, lsl #24
    fffec888:	2a040063 	orr	w3, w3, w4
    fffec88c:	b8227a83 	str	w3, [x20, x2, lsl #2]
    fffec890:	91000442 	add	x2, x2, #0x1
    fffec894:	f1000c5f 	cmp	x2, #0x3
    fffec898:	54fffe41 	b.ne	fffec860 <pm_api_clock_get_topology+0x80>  // b.any
    fffec89c:	17ffffe8 	b	fffec83c <pm_api_clock_get_topology+0x5c>
    fffec8a0:	52800020 	mov	w0, #0x1                   	// #1
    fffec8a4:	17ffffe7 	b	fffec840 <pm_api_clock_get_topology+0x60>
    fffec8a8:	52800080 	mov	w0, #0x4                   	// #4
    fffec8ac:	17ffffe5 	b	fffec840 <pm_api_clock_get_topology+0x60>

00000000fffec8b0 <pm_api_clock_get_fixedfactor_params>:
    fffec8b0:	2a0003e4 	mov	w4, w0
    fffec8b4:	aa0103e6 	mov	x6, x1
    fffec8b8:	aa0203e7 	mov	x7, x2
    fffec8bc:	a9bf7bfd 	stp	x29, x30, [sp, #-16]!
    fffec8c0:	910003fd 	mov	x29, sp
    fffec8c4:	97ffff93 	bl	fffec710 <pm_clock_valid>
    fffec8c8:	72001c1f 	tst	w0, #0xff
    fffec8cc:	540003a0 	b.eq	fffec940 <pm_api_clock_get_fixedfactor_params+0x90>  // b.none
    fffec8d0:	7101c09f 	cmp	w4, #0x70
    fffec8d4:	540003a8 	b.hi	fffec948 <pm_api_clock_get_fixedfactor_params+0x98>  // b.pmore
    fffec8d8:	90000040 	adrp	x0, ffff4000 <pinctrl_functions+0x1d8>
    fffec8dc:	91380000 	add	x0, x0, #0xe00
    fffec8e0:	d2800501 	mov	x1, #0x28                  	// #40
    fffec8e4:	9b010084 	madd	x4, x4, x1, x0
    fffec8e8:	52800000 	mov	w0, #0x0                   	// #0
    fffec8ec:	39403c85 	ldrb	w5, [x4, #15]
    fffec8f0:	f9401083 	ldr	x3, [x4, #32]
    fffec8f4:	6b0000bf 	cmp	w5, w0
    fffec8f8:	54000189 	b.ls	fffec928 <pm_api_clock_get_fixedfactor_params+0x78>  // b.plast
    fffec8fc:	aa0303e4 	mov	x4, x3
    fffec900:	91002063 	add	x3, x3, #0x8
    fffec904:	385fc061 	ldurb	w1, [x3, #-4]
    fffec908:	71000c3f 	cmp	w1, #0x3
    fffec90c:	54000161 	b.ne	fffec938 <pm_api_clock_get_fixedfactor_params+0x88>  // b.any
    fffec910:	39401c83 	ldrb	w3, [x4, #7]
    fffec914:	39401c81 	ldrb	w1, [x4, #7]
    fffec918:	12000c63 	and	w3, w3, #0xf
    fffec91c:	b90000c3 	str	w3, [x6]
    fffec920:	d3441c21 	ubfx	x1, x1, #4, #4
    fffec924:	b90000e1 	str	w1, [x7]
    fffec928:	6b0000bf 	cmp	w5, w0
    fffec92c:	1a9f17e0 	cset	w0, eq  // eq = none
    fffec930:	a8c17bfd 	ldp	x29, x30, [sp], #16
    fffec934:	d65f03c0 	ret
    fffec938:	11000400 	add	w0, w0, #0x1
    fffec93c:	17ffffee 	b	fffec8f4 <pm_api_clock_get_fixedfactor_params+0x44>
    fffec940:	52800020 	mov	w0, #0x1                   	// #1
    fffec944:	17fffffb 	b	fffec930 <pm_api_clock_get_fixedfactor_params+0x80>
    fffec948:	52800080 	mov	w0, #0x4                   	// #4
    fffec94c:	17fffff9 	b	fffec930 <pm_api_clock_get_fixedfactor_params+0x80>

00000000fffec950 <pm_api_clock_get_parents>:
    fffec950:	a9bd7bfd 	stp	x29, x30, [sp, #-48]!
    fffec954:	2a0003e4 	mov	w4, w0
    fffec958:	910003fd 	mov	x29, sp
    fffec95c:	a90153f3 	stp	x19, x20, [sp, #16]
    fffec960:	2a0103f4 	mov	w20, w1
    fffec964:	f90013f5 	str	x21, [sp, #32]
    fffec968:	aa0203f5 	mov	x21, x2
    fffec96c:	97ffff69 	bl	fffec710 <pm_clock_valid>
    fffec970:	72001c1f 	tst	w0, #0xff
    fffec974:	54000500 	b.eq	fffeca14 <pm_api_clock_get_parents+0xc4>  // b.none
    fffec978:	7101c09f 	cmp	w4, #0x70
    fffec97c:	54000488 	b.hi	fffeca0c <pm_api_clock_get_parents+0xbc>  // b.pmore
    fffec980:	90000040 	adrp	x0, ffff4000 <pinctrl_functions+0x1d8>
    fffec984:	91380000 	add	x0, x0, #0xe00
    fffec988:	d2800501 	mov	x1, #0x28                  	// #40
    fffec98c:	9b010084 	madd	x4, x4, x1, x0
    fffec990:	f9400c93 	ldr	x19, [x4, #24]
    fffec994:	b4000413 	cbz	x19, fffeca14 <pm_api_clock_get_parents+0xc4>
    fffec998:	d2800182 	mov	x2, #0xc                   	// #12
    fffec99c:	52800001 	mov	w1, #0x0                   	// #0
    fffec9a0:	aa1503e0 	mov	x0, x21
    fffec9a4:	94000f88 	bl	ffff07c4 <memset>
    fffec9a8:	d2800000 	mov	x0, #0x0                   	// #0
    fffec9ac:	6b00029f 	cmp	w20, w0
    fffec9b0:	540001a8 	b.hi	fffec9e4 <pm_api_clock_get_parents+0x94>  // b.pmore
    fffec9b4:	d2800000 	mov	x0, #0x0                   	// #0
    fffec9b8:	0b000281 	add	w1, w20, w0
    fffec9bc:	d37ef421 	lsl	x1, x1, #2
    fffec9c0:	b8616a62 	ldr	w2, [x19, x1]
    fffec9c4:	b8207aa2 	str	w2, [x21, x0, lsl #2]
    fffec9c8:	b8616a61 	ldr	w1, [x19, x1]
    fffec9cc:	3100043f 	cmn	w1, #0x1
    fffec9d0:	54000140 	b.eq	fffec9f8 <pm_api_clock_get_parents+0xa8>  // b.none
    fffec9d4:	91000400 	add	x0, x0, #0x1
    fffec9d8:	f1000c1f 	cmp	x0, #0x3
    fffec9dc:	54fffee1 	b.ne	fffec9b8 <pm_api_clock_get_parents+0x68>  // b.any
    fffec9e0:	14000006 	b	fffec9f8 <pm_api_clock_get_parents+0xa8>
    fffec9e4:	91000400 	add	x0, x0, #0x1
    fffec9e8:	8b000a61 	add	x1, x19, x0, lsl #2
    fffec9ec:	b85fc021 	ldur	w1, [x1, #-4]
    fffec9f0:	3100043f 	cmn	w1, #0x1
    fffec9f4:	54fffdc1 	b.ne	fffec9ac <pm_api_clock_get_parents+0x5c>  // b.any
    fffec9f8:	52800000 	mov	w0, #0x0                   	// #0
    fffec9fc:	a94153f3 	ldp	x19, x20, [sp, #16]
    fffeca00:	f94013f5 	ldr	x21, [sp, #32]
    fffeca04:	a8c37bfd 	ldp	x29, x30, [sp], #48
    fffeca08:	d65f03c0 	ret
    fffeca0c:	52800080 	mov	w0, #0x4                   	// #4
    fffeca10:	17fffffb 	b	fffec9fc <pm_api_clock_get_parents+0xac>
    fffeca14:	52800020 	mov	w0, #0x1                   	// #1
    fffeca18:	17fffff9 	b	fffec9fc <pm_api_clock_get_parents+0xac>

00000000fffeca1c <pm_api_clock_get_attributes>:
    fffeca1c:	7103381f 	cmp	w0, #0xce
    fffeca20:	540001c8 	b.hi	fffeca58 <pm_api_clock_get_attributes+0x3c>  // b.pmore
    fffeca24:	aa0103e5 	mov	x5, x1
    fffeca28:	2a0003e4 	mov	w4, w0
    fffeca2c:	a9bf7bfd 	stp	x29, x30, [sp, #-16]!
    fffeca30:	910003fd 	mov	x29, sp
    fffeca34:	97ffff37 	bl	fffec710 <pm_clock_valid>
    fffeca38:	7101c09f 	cmp	w4, #0x70
    fffeca3c:	12001c01 	and	w1, w0, #0xff
    fffeca40:	1a9f97e0 	cset	w0, hi  // hi = pmore
    fffeca44:	2a000820 	orr	w0, w1, w0, lsl #2
    fffeca48:	b90000a0 	str	w0, [x5]
    fffeca4c:	52800000 	mov	w0, #0x0                   	// #0
    fffeca50:	a8c17bfd 	ldp	x29, x30, [sp], #16
    fffeca54:	d65f03c0 	ret
    fffeca58:	52800020 	mov	w0, #0x1                   	// #1
    fffeca5c:	d65f03c0 	ret

00000000fffeca60 <pm_api_clock_get_max_divisor>:
    fffeca60:	12001c21 	and	w1, w1, #0xff
    fffeca64:	7101c01f 	cmp	w0, #0x70
    fffeca68:	54000188 	b.hi	fffeca98 <pm_api_clock_get_max_divisor+0x38>  // b.pmore
    fffeca6c:	2a0003e0 	mov	w0, w0
    fffeca70:	90000043 	adrp	x3, ffff4000 <pinctrl_functions+0x1d8>
    fffeca74:	91380063 	add	x3, x3, #0xe00
    fffeca78:	d2800504 	mov	x4, #0x28                  	// #40
    fffeca7c:	9b040c00 	madd	x0, x0, x4, x3
    fffeca80:	f9401003 	ldr	x3, [x0, #32]
    fffeca84:	39403c00 	ldrb	w0, [x0, #15]
    fffeca88:	91001063 	add	x3, x3, #0x4
    fffeca8c:	8b204c60 	add	x0, x3, w0, uxtw #3
    fffeca90:	eb00007f 	cmp	x3, x0
    fffeca94:	54000061 	b.ne	fffecaa0 <pm_api_clock_get_max_divisor+0x40>  // b.any
    fffeca98:	52800020 	mov	w0, #0x1                   	// #1
    fffeca9c:	1400000b 	b	fffecac8 <pm_api_clock_get_max_divisor+0x68>
    fffecaa0:	d1001064 	sub	x4, x3, #0x4
    fffecaa4:	38408465 	ldrb	w5, [x3], #8
    fffecaa8:	6b0100bf 	cmp	w5, w1
    fffecaac:	54ffff21 	b.ne	fffeca90 <pm_api_clock_get_max_divisor+0x30>  // b.any
    fffecab0:	39401881 	ldrb	w1, [x4, #6]
    fffecab4:	52800020 	mov	w0, #0x1                   	// #1
    fffecab8:	1ac12000 	lsl	w0, w0, w1
    fffecabc:	51000400 	sub	w0, w0, #0x1
    fffecac0:	b9000040 	str	w0, [x2]
    fffecac4:	52800000 	mov	w0, #0x0                   	// #0
    fffecac8:	d65f03c0 	ret

00000000fffecacc <pm_clock_get_pll>:
    fffecacc:	d0000043 	adrp	x3, ffff6000 <ext_clocks+0x18>
    fffecad0:	911a3063 	add	x3, x3, #0x68c
    fffecad4:	d2800002 	mov	x2, #0x0                   	// #0
    fffecad8:	d2800384 	mov	x4, #0x1c                  	// #28
    fffecadc:	9b040c41 	madd	x1, x2, x4, x3
    fffecae0:	b9400425 	ldr	w5, [x1, #4]
    fffecae4:	6b0000bf 	cmp	w5, w0
    fffecae8:	54000061 	b.ne	fffecaf4 <pm_clock_get_pll+0x28>  // b.any
    fffecaec:	aa0103e0 	mov	x0, x1
    fffecaf0:	d65f03c0 	ret
    fffecaf4:	91000442 	add	x2, x2, #0x1
    fffecaf8:	f100145f 	cmp	x2, #0x5
    fffecafc:	54ffff01 	b.ne	fffecadc <pm_clock_get_pll+0x10>  // b.any
    fffecb00:	d2800000 	mov	x0, #0x0                   	// #0
    fffecb04:	17fffffb 	b	fffecaf0 <pm_clock_get_pll+0x24>

00000000fffecb08 <pm_clock_get_pll_node_id>:
    fffecb08:	aa0103e6 	mov	x6, x1
    fffecb0c:	a9bf7bfd 	stp	x29, x30, [sp, #-16]!
    fffecb10:	910003fd 	mov	x29, sp
    fffecb14:	97ffffee 	bl	fffecacc <pm_clock_get_pll>
    fffecb18:	b40000c0 	cbz	x0, fffecb30 <pm_clock_get_pll_node_id+0x28>
    fffecb1c:	b9400000 	ldr	w0, [x0]
    fffecb20:	b90000c0 	str	w0, [x6]
    fffecb24:	52800000 	mov	w0, #0x0                   	// #0
    fffecb28:	a8c17bfd 	ldp	x29, x30, [sp], #16
    fffecb2c:	d65f03c0 	ret
    fffecb30:	52800020 	mov	w0, #0x1                   	// #1
    fffecb34:	17fffffd 	b	fffecb28 <pm_clock_get_pll_node_id+0x20>

00000000fffecb38 <pm_clock_get_pll_by_related_clk>:
    fffecb38:	d0000043 	adrp	x3, ffff6000 <ext_clocks+0x18>
    fffecb3c:	911a3061 	add	x1, x3, #0x68c
    fffecb40:	91002021 	add	x1, x1, #0x8
    fffecb44:	52800002 	mov	w2, #0x0                   	// #0
    fffecb48:	b9400024 	ldr	w4, [x1]
    fffecb4c:	6b00009f 	cmp	w4, w0
    fffecb50:	540000a1 	b.ne	fffecb64 <pm_clock_get_pll_by_related_clk+0x2c>  // b.any
    fffecb54:	911a3063 	add	x3, x3, #0x68c
    fffecb58:	52800380 	mov	w0, #0x1c                  	// #28
    fffecb5c:	9ba00c40 	umaddl	x0, w2, w0, x3
    fffecb60:	d65f03c0 	ret
    fffecb64:	b9400424 	ldr	w4, [x1, #4]
    fffecb68:	6b00009f 	cmp	w4, w0
    fffecb6c:	54ffff40 	b.eq	fffecb54 <pm_clock_get_pll_by_related_clk+0x1c>  // b.none
    fffecb70:	b9400824 	ldr	w4, [x1, #8]
    fffecb74:	6b00009f 	cmp	w4, w0
    fffecb78:	54fffee0 	b.eq	fffecb54 <pm_clock_get_pll_by_related_clk+0x1c>  // b.none
    fffecb7c:	b9400c24 	ldr	w4, [x1, #12]
    fffecb80:	6b00009f 	cmp	w4, w0
    fffecb84:	54fffe80 	b.eq	fffecb54 <pm_clock_get_pll_by_related_clk+0x1c>  // b.none
    fffecb88:	11000442 	add	w2, w2, #0x1
    fffecb8c:	91007021 	add	x1, x1, #0x1c
    fffecb90:	7100145f 	cmp	w2, #0x5
    fffecb94:	54fffda1 	b.ne	fffecb48 <pm_clock_get_pll_by_related_clk+0x10>  // b.any
    fffecb98:	d2800000 	mov	x0, #0x0                   	// #0
    fffecb9c:	17fffff1 	b	fffecb60 <pm_clock_get_pll_by_related_clk+0x28>

00000000fffecba0 <pm_clock_pll_enable>:
    fffecba0:	aa0003e1 	mov	x1, x0
    fffecba4:	b4000120 	cbz	x0, fffecbc8 <pm_clock_pll_enable+0x28>
    fffecba8:	39406021 	ldrb	w1, [x1, #24]
    fffecbac:	b9400000 	ldr	w0, [x0]
    fffecbb0:	7100043f 	cmp	w1, #0x1
    fffecbb4:	54000061 	b.ne	fffecbc0 <pm_clock_pll_enable+0x20>  // b.any
    fffecbb8:	52800041 	mov	w1, #0x2                   	// #2
    fffecbbc:	17fffcb0 	b	fffebe7c <pm_pll_set_mode>
    fffecbc0:	52800021 	mov	w1, #0x1                   	// #1
    fffecbc4:	17fffffe 	b	fffecbbc <pm_clock_pll_enable+0x1c>
    fffecbc8:	52800020 	mov	w0, #0x1                   	// #1
    fffecbcc:	d65f03c0 	ret

00000000fffecbd0 <pm_clock_pll_disable>:
    fffecbd0:	b4000080 	cbz	x0, fffecbe0 <pm_clock_pll_disable+0x10>
    fffecbd4:	b9400000 	ldr	w0, [x0]
    fffecbd8:	52800001 	mov	w1, #0x0                   	// #0
    fffecbdc:	17fffca8 	b	fffebe7c <pm_pll_set_mode>
    fffecbe0:	52800020 	mov	w0, #0x1                   	// #1
    fffecbe4:	d65f03c0 	ret

00000000fffecbe8 <pm_clock_pll_get_state>:
    fffecbe8:	f100001f 	cmp	x0, #0x0
    fffecbec:	fa401824 	ccmp	x1, #0x0, #0x4, ne  // ne = any
    fffecbf0:	54000200 	b.eq	fffecc30 <pm_clock_pll_get_state+0x48>  // b.none
    fffecbf4:	a9bd7bfd 	stp	x29, x30, [sp, #-48]!
    fffecbf8:	910003fd 	mov	x29, sp
    fffecbfc:	b9400000 	ldr	w0, [x0]
    fffecc00:	f9000bf3 	str	x19, [sp, #16]
    fffecc04:	aa0103f3 	mov	x19, x1
    fffecc08:	9100b3a1 	add	x1, x29, #0x2c
    fffecc0c:	97fffcb0 	bl	fffebecc <pm_pll_get_mode>
    fffecc10:	350000a0 	cbnz	w0, fffecc24 <pm_clock_pll_get_state+0x3c>
    fffecc14:	b9402fa1 	ldr	w1, [x29, #44]
    fffecc18:	7100003f 	cmp	w1, #0x0
    fffecc1c:	1a9f07e1 	cset	w1, ne  // ne = any
    fffecc20:	b9000261 	str	w1, [x19]
    fffecc24:	f9400bf3 	ldr	x19, [sp, #16]
    fffecc28:	a8c37bfd 	ldp	x29, x30, [sp], #48
    fffecc2c:	d65f03c0 	ret
    fffecc30:	52800020 	mov	w0, #0x1                   	// #1
    fffecc34:	d65f03c0 	ret

00000000fffecc38 <pm_clock_pll_set_parent>:
    fffecc38:	b4000220 	cbz	x0, fffecc7c <pm_clock_pll_set_parent+0x44>
    fffecc3c:	b9400803 	ldr	w3, [x0, #8]
    fffecc40:	6b01007f 	cmp	w3, w1
    fffecc44:	54000081 	b.ne	fffecc54 <pm_clock_pll_set_parent+0x1c>  // b.any
    fffecc48:	52800061 	mov	w1, #0x3                   	// #3
    fffecc4c:	b9400000 	ldr	w0, [x0]
    fffecc50:	17fffbfb 	b	fffebc3c <pm_pll_set_parameter>
    fffecc54:	b9400c03 	ldr	w3, [x0, #12]
    fffecc58:	6b01007f 	cmp	w3, w1
    fffecc5c:	54000061 	b.ne	fffecc68 <pm_clock_pll_set_parent+0x30>  // b.any
    fffecc60:	52800081 	mov	w1, #0x4                   	// #4
    fffecc64:	17fffffa 	b	fffecc4c <pm_clock_pll_set_parent+0x14>
    fffecc68:	b9401003 	ldr	w3, [x0, #16]
    fffecc6c:	6b01007f 	cmp	w3, w1
    fffecc70:	54000061 	b.ne	fffecc7c <pm_clock_pll_set_parent+0x44>  // b.any
    fffecc74:	52800001 	mov	w1, #0x0                   	// #0
    fffecc78:	17fffff5 	b	fffecc4c <pm_clock_pll_set_parent+0x14>
    fffecc7c:	52800020 	mov	w0, #0x1                   	// #1
    fffecc80:	d65f03c0 	ret

00000000fffecc84 <pm_clock_pll_get_parent>:
    fffecc84:	b40002e0 	cbz	x0, fffecce0 <pm_clock_pll_get_parent+0x5c>
    fffecc88:	b9400804 	ldr	w4, [x0, #8]
    fffecc8c:	6b01009f 	cmp	w4, w1
    fffecc90:	54000081 	b.ne	fffecca0 <pm_clock_pll_get_parent+0x1c>  // b.any
    fffecc94:	52800061 	mov	w1, #0x3                   	// #3
    fffecc98:	b9400000 	ldr	w0, [x0]
    fffecc9c:	17fffc27 	b	fffebd38 <pm_pll_get_parameter>
    fffecca0:	b9400c04 	ldr	w4, [x0, #12]
    fffecca4:	6b01009f 	cmp	w4, w1
    fffecca8:	54000061 	b.ne	fffeccb4 <pm_clock_pll_get_parent+0x30>  // b.any
    fffeccac:	52800081 	mov	w1, #0x4                   	// #4
    fffeccb0:	17fffffa 	b	fffecc98 <pm_clock_pll_get_parent+0x14>
    fffeccb4:	b9401004 	ldr	w4, [x0, #16]
    fffeccb8:	6b01009f 	cmp	w4, w1
    fffeccbc:	54000061 	b.ne	fffeccc8 <pm_clock_pll_get_parent+0x44>  // b.any
    fffeccc0:	52800001 	mov	w1, #0x0                   	// #0
    fffeccc4:	17fffff5 	b	fffecc98 <pm_clock_pll_get_parent+0x14>
    fffeccc8:	b9401400 	ldr	w0, [x0, #20]
    fffecccc:	6b01001f 	cmp	w0, w1
    fffeccd0:	54000081 	b.ne	fffecce0 <pm_clock_pll_get_parent+0x5c>  // b.any
    fffeccd4:	52800000 	mov	w0, #0x0                   	// #0
    fffeccd8:	b900005f 	str	wzr, [x2]
    fffeccdc:	d65f03c0 	ret
    fffecce0:	52800020 	mov	w0, #0x1                   	// #1
    fffecce4:	17fffffe 	b	fffeccdc <pm_clock_pll_get_parent+0x58>

00000000fffecce8 <pm_clock_set_pll_mode>:
    fffecce8:	2a0103e6 	mov	w6, w1
    fffeccec:	a9bf7bfd 	stp	x29, x30, [sp, #-16]!
    fffeccf0:	910003fd 	mov	x29, sp
    fffeccf4:	97ffff76 	bl	fffecacc <pm_clock_get_pll>
    fffeccf8:	f100001f 	cmp	x0, #0x0
    fffeccfc:	7a4118c2 	ccmp	w6, #0x1, #0x2, ne  // ne = any
    fffecd00:	540000a8 	b.hi	fffecd14 <pm_clock_set_pll_mode+0x2c>  // b.pmore
    fffecd04:	39006006 	strb	w6, [x0, #24]
    fffecd08:	52800000 	mov	w0, #0x0                   	// #0
    fffecd0c:	a8c17bfd 	ldp	x29, x30, [sp], #16
    fffecd10:	d65f03c0 	ret
    fffecd14:	52800020 	mov	w0, #0x1                   	// #1
    fffecd18:	17fffffd 	b	fffecd0c <pm_clock_set_pll_mode+0x24>

00000000fffecd1c <pm_clock_get_pll_mode>:
    fffecd1c:	aa0103e6 	mov	x6, x1
    fffecd20:	a9bf7bfd 	stp	x29, x30, [sp, #-16]!
    fffecd24:	910003fd 	mov	x29, sp
    fffecd28:	97ffff69 	bl	fffecacc <pm_clock_get_pll>
    fffecd2c:	f100001f 	cmp	x0, #0x0
    fffecd30:	fa4018c4 	ccmp	x6, #0x0, #0x4, ne  // ne = any
    fffecd34:	540000c0 	b.eq	fffecd4c <pm_clock_get_pll_mode+0x30>  // b.none
    fffecd38:	39406000 	ldrb	w0, [x0, #24]
    fffecd3c:	b90000c0 	str	w0, [x6]
    fffecd40:	52800000 	mov	w0, #0x0                   	// #0
    fffecd44:	a8c17bfd 	ldp	x29, x30, [sp], #16
    fffecd48:	d65f03c0 	ret
    fffecd4c:	52800020 	mov	w0, #0x1                   	// #1
    fffecd50:	17fffffd 	b	fffecd44 <pm_clock_get_pll_mode+0x28>

00000000fffecd54 <pm_clock_id_is_valid>:
    fffecd54:	2a0003e4 	mov	w4, w0
    fffecd58:	a9bf7bfd 	stp	x29, x30, [sp, #-16]!
    fffecd5c:	910003fd 	mov	x29, sp
    fffecd60:	97fffe6c 	bl	fffec710 <pm_clock_valid>
    fffecd64:	72001c1f 	tst	w0, #0xff
    fffecd68:	540000c0 	b.eq	fffecd80 <pm_clock_id_is_valid+0x2c>  // b.none
    fffecd6c:	7101c09f 	cmp	w4, #0x70
    fffecd70:	1a9f97e0 	cset	w0, hi  // hi = pmore
    fffecd74:	531e7400 	lsl	w0, w0, #2
    fffecd78:	a8c17bfd 	ldp	x29, x30, [sp], #16
    fffecd7c:	d65f03c0 	ret
    fffecd80:	52800020 	mov	w0, #0x1                   	// #1
    fffecd84:	17fffffd 	b	fffecd78 <pm_clock_id_is_valid+0x24>

00000000fffecd88 <pm_clock_has_div>:
    fffecd88:	7101c01f 	cmp	w0, #0x70
    fffecd8c:	54000188 	b.hi	fffecdbc <pm_clock_has_div+0x34>  // b.pmore
    fffecd90:	2a0003e0 	mov	w0, w0
    fffecd94:	90000042 	adrp	x2, ffff4000 <pinctrl_functions+0x1d8>
    fffecd98:	91380042 	add	x2, x2, #0xe00
    fffecd9c:	d2800503 	mov	x3, #0x28                  	// #40
    fffecda0:	9b030800 	madd	x0, x0, x3, x2
    fffecda4:	f9401002 	ldr	x2, [x0, #32]
    fffecda8:	39403c00 	ldrb	w0, [x0, #15]
    fffecdac:	91001042 	add	x2, x2, #0x4
    fffecdb0:	8b204c40 	add	x0, x2, w0, uxtw #3
    fffecdb4:	eb00005f 	cmp	x2, x0
    fffecdb8:	54000061 	b.ne	fffecdc4 <pm_clock_has_div+0x3c>  // b.any
    fffecdbc:	52800000 	mov	w0, #0x0                   	// #0
    fffecdc0:	d65f03c0 	ret
    fffecdc4:	39400043 	ldrb	w3, [x2]
    fffecdc8:	7100107f 	cmp	w3, #0x4
    fffecdcc:	54000081 	b.ne	fffecddc <pm_clock_has_div+0x54>  // b.any
    fffecdd0:	350000e1 	cbnz	w1, fffecdec <pm_clock_has_div+0x64>
    fffecdd4:	52800020 	mov	w0, #0x1                   	// #1
    fffecdd8:	17fffffa 	b	fffecdc0 <pm_clock_has_div+0x38>
    fffecddc:	7100147f 	cmp	w3, #0x5
    fffecde0:	54000061 	b.ne	fffecdec <pm_clock_has_div+0x64>  // b.any
    fffecde4:	7100043f 	cmp	w1, #0x1
    fffecde8:	54000060 	b.eq	fffecdf4 <pm_clock_has_div+0x6c>  // b.none
    fffecdec:	91002042 	add	x2, x2, #0x8
    fffecdf0:	17fffff1 	b	fffecdb4 <pm_clock_has_div+0x2c>
    fffecdf4:	2a0103e0 	mov	w0, w1
    fffecdf8:	17fffff2 	b	fffecdc0 <pm_clock_has_div+0x38>

00000000fffecdfc <pm_get_proc>:
    fffecdfc:	d37c7c02 	ubfiz	x2, x0, #4, #32
    fffece00:	d0000021 	adrp	x1, ffff2000 <__TEXT_END__>
    fffece04:	911ce021 	add	x1, x1, #0x738
    fffece08:	7100101f 	cmp	w0, #0x4
    fffece0c:	8b020021 	add	x1, x1, x2
    fffece10:	9a9f3020 	csel	x0, x1, xzr, cc  // cc = lo, ul, last
    fffece14:	d65f03c0 	ret

00000000fffece18 <pm_client_suspend>:
    fffece18:	a9b67bfd 	stp	x29, x30, [sp, #-160]!
    fffece1c:	910003fd 	mov	x29, sp
    fffece20:	a90153f3 	stp	x19, x20, [sp, #16]
    fffece24:	2a0103f3 	mov	w19, w1
    fffece28:	a9025bf5 	stp	x21, x22, [sp, #32]
    fffece2c:	d0000094 	adrp	x20, ffffe000 <pm_secure_lock>
    fffece30:	a90363f7 	stp	x23, x24, [sp, #48]
    fffece34:	aa0003f7 	mov	x23, x0
    fffece38:	a9046bf9 	stp	x25, x26, [sp, #64]
    fffece3c:	91002280 	add	x0, x20, #0x8
    fffece40:	94000765 	bl	fffeebd4 <bakery_lock_get>
    fffece44:	71003e7f 	cmp	w19, #0xf
    fffece48:	54000501 	b.ne	fffecee8 <pm_client_suspend+0xd0>  // b.any
    fffece4c:	f0000040 	adrp	x0, ffff7000 <__RELA_END__+0x880>
    fffece50:	b9496402 	ldr	w2, [x0, #2404]
    fffece54:	7100045f 	cmp	w2, #0x1
    fffece58:	54000400 	b.eq	fffeced8 <pm_client_suspend+0xc0>  // b.none
    fffece5c:	d2802096 	mov	x22, #0x104                 	// #260
    fffece60:	d0000039 	adrp	x25, ffff2000 <__TEXT_END__>
    fffece64:	91178339 	add	x25, x25, #0x5e0
    fffece68:	52800015 	mov	w21, #0x0                   	// #0
    fffece6c:	f2bf2036 	movk	x22, #0xf901, lsl #16
    fffece70:	910143b8 	add	x24, x29, #0x50
    fffece74:	d28009c1 	mov	x1, #0x4e                  	// #78
    fffece78:	aa1803e0 	mov	x0, x24
    fffece7c:	94000db6 	bl	ffff0554 <zeromem>
    fffece80:	b94002d3 	ldr	w19, [x22]
    fffece84:	340004f3 	cbz	w19, fffecf20 <pm_client_suspend+0x108>
    fffece88:	4b1303e0 	neg	w0, w19
    fffece8c:	0a130000 	and	w0, w0, w19
    fffece90:	5ac00001 	rbit	w1, w0
    fffece94:	5ac01021 	clz	w1, w1
    fffece98:	0b150021 	add	w1, w1, w21
    fffece9c:	7101503f 	cmp	w1, #0x54
    fffecea0:	54000408 	b.hi	fffecf20 <pm_client_suspend+0x108>  // b.pmore
    fffecea4:	b8615b21 	ldr	w1, [x25, w1, uxtw #2]
    fffecea8:	0a200273 	bic	w19, w19, w0
    fffeceac:	34fffec1 	cbz	w1, fffece84 <pm_client_suspend+0x6c>
    fffeceb0:	2a0103fa 	mov	w26, w1
    fffeceb4:	387a6b00 	ldrb	w0, [x24, x26]
    fffeceb8:	35fffe60 	cbnz	w0, fffece84 <pm_client_suspend+0x6c>
    fffecebc:	52800022 	mov	w2, #0x1                   	// #1
    fffecec0:	2a0203e0 	mov	w0, w2
    fffecec4:	97fff8ee 	bl	fffeb27c <pm_set_wakeup_source>
    fffecec8:	7100001f 	cmp	w0, #0x0
    fffececc:	1a9f17e0 	cset	w0, eq  // eq = none
    fffeced0:	383a6b00 	strb	w0, [x24, x26]
    fffeced4:	17ffffec 	b	fffece84 <pm_client_suspend+0x6c>
    fffeced8:	52800621 	mov	w1, #0x31                  	// #49
    fffecedc:	2a0203e0 	mov	w0, w2
    fffecee0:	97fff8e7 	bl	fffeb27c <pm_set_wakeup_source>
    fffecee4:	35fffbc0 	cbnz	w0, fffece5c <pm_client_suspend+0x44>
    fffecee8:	d2801201 	mov	x1, #0x90                  	// #144
    fffeceec:	b94006e2 	ldr	w2, [x23, #4]
    fffecef0:	f2bfab81 	movk	x1, #0xfd5c, lsl #16
    fffecef4:	b9400020 	ldr	w0, [x1]
    fffecef8:	2a020000 	orr	w0, w0, w2
    fffecefc:	b9000020 	str	w0, [x1]
    fffecf00:	91002280 	add	x0, x20, #0x8
    fffecf04:	94000763 	bl	fffeec90 <bakery_lock_release>
    fffecf08:	a94153f3 	ldp	x19, x20, [sp, #16]
    fffecf0c:	a9425bf5 	ldp	x21, x22, [sp, #32]
    fffecf10:	a94363f7 	ldp	x23, x24, [sp, #48]
    fffecf14:	a9446bf9 	ldp	x25, x26, [sp, #64]
    fffecf18:	a8ca7bfd 	ldp	x29, x30, [sp], #160
    fffecf1c:	d65f03c0 	ret
    fffecf20:	110082b5 	add	w21, w21, #0x20
    fffecf24:	910012d6 	add	x22, x22, #0x4
    fffecf28:	710182bf 	cmp	w21, #0x60
    fffecf2c:	54fffaa1 	b.ne	fffece80 <pm_client_suspend+0x68>  // b.any
    fffecf30:	17ffffee 	b	fffecee8 <pm_client_suspend+0xd0>

00000000fffecf34 <pm_client_abort_suspend>:
    fffecf34:	a9be7bfd 	stp	x29, x30, [sp, #-32]!
    fffecf38:	910003fd 	mov	x29, sp
    fffecf3c:	f9000bf3 	str	x19, [sp, #16]
    fffecf40:	94000988 	bl	fffef560 <gicv2_cpuif_enable>
    fffecf44:	d0000093 	adrp	x19, ffffe000 <pm_secure_lock>
    fffecf48:	91002273 	add	x19, x19, #0x8
    fffecf4c:	aa1303e0 	mov	x0, x19
    fffecf50:	94000721 	bl	fffeebd4 <bakery_lock_get>
    fffecf54:	d0000040 	adrp	x0, ffff6000 <ext_clocks+0x18>
    fffecf58:	d2801201 	mov	x1, #0x90                  	// #144
    fffecf5c:	f2bfab81 	movk	x1, #0xfd5c, lsl #16
    fffecf60:	f943b000 	ldr	x0, [x0, #1888]
    fffecf64:	b9400022 	ldr	w2, [x1]
    fffecf68:	b9400400 	ldr	w0, [x0, #4]
    fffecf6c:	0a200040 	bic	w0, w2, w0
    fffecf70:	b9000020 	str	w0, [x1]
    fffecf74:	aa1303e0 	mov	x0, x19
    fffecf78:	f9400bf3 	ldr	x19, [sp, #16]
    fffecf7c:	a8c27bfd 	ldp	x29, x30, [sp], #32
    fffecf80:	14000744 	b	fffeec90 <bakery_lock_release>

00000000fffecf84 <pm_client_wakeup>:
    fffecf84:	b9400001 	ldr	w1, [x0]
    fffecf88:	51000821 	sub	w1, w1, #0x2
    fffecf8c:	71000c3f 	cmp	w1, #0x3
    fffecf90:	54000268 	b.hi	fffecfdc <pm_client_wakeup+0x58>  // b.pmore
    fffecf94:	a9be7bfd 	stp	x29, x30, [sp, #-32]!
    fffecf98:	910003fd 	mov	x29, sp
    fffecf9c:	a90153f3 	stp	x19, x20, [sp, #16]
    fffecfa0:	d0000093 	adrp	x19, ffffe000 <pm_secure_lock>
    fffecfa4:	91002273 	add	x19, x19, #0x8
    fffecfa8:	aa0003f4 	mov	x20, x0
    fffecfac:	aa1303e0 	mov	x0, x19
    fffecfb0:	94000709 	bl	fffeebd4 <bakery_lock_get>
    fffecfb4:	d2801201 	mov	x1, #0x90                  	// #144
    fffecfb8:	f2bfab81 	movk	x1, #0xfd5c, lsl #16
    fffecfbc:	b9400680 	ldr	w0, [x20, #4]
    fffecfc0:	b9400022 	ldr	w2, [x1]
    fffecfc4:	0a200040 	bic	w0, w2, w0
    fffecfc8:	b9000020 	str	w0, [x1]
    fffecfcc:	aa1303e0 	mov	x0, x19
    fffecfd0:	a94153f3 	ldp	x19, x20, [sp, #16]
    fffecfd4:	a8c27bfd 	ldp	x29, x30, [sp], #32
    fffecfd8:	1400072e 	b	fffeec90 <bakery_lock_release>
    fffecfdc:	d65f03c0 	ret

00000000fffecfe0 <pm_set_suspend_mode>:
    fffecfe0:	7100041f 	cmp	w0, #0x1
    fffecfe4:	540000a8 	b.hi	fffecff8 <pm_set_suspend_mode+0x18>  // b.pmore
    fffecfe8:	f0000041 	adrp	x1, ffff7000 <__RELA_END__+0x880>
    fffecfec:	b9096420 	str	w0, [x1, #2404]
    fffecff0:	52800000 	mov	w0, #0x0                   	// #0
    fffecff4:	d65f03c0 	ret
    fffecff8:	52800020 	mov	w0, #0x1                   	// #1
    fffecffc:	17fffffe 	b	fffecff4 <pm_set_suspend_mode+0x14>

00000000fffed000 <get_arm_std_svc_args>:
    fffed000:	b0000020 	adrp	x0, ffff2000 <__TEXT_END__>
    fffed004:	911f6000 	add	x0, x0, #0x7d8
    fffed008:	d65f03c0 	ret

00000000fffed00c <bl31_prepare_next_image_entry>:
    fffed00c:	a9be7bfd 	stp	x29, x30, [sp, #-32]!
    fffed010:	910003fd 	mov	x29, sp
    fffed014:	a90153f3 	stp	x19, x20, [sp, #16]
    fffed018:	d5380400 	mrs	x0, id_aa64pfr0_el1
    fffed01c:	d3441c00 	ubfx	x0, x0, #4, #4
    fffed020:	f100041f 	cmp	x0, #0x1
    fffed024:	540000c1 	b.ne	fffed03c <bl31_prepare_next_image_entry+0x30>  // b.any
    fffed028:	b0000020 	adrp	x0, ffff2000 <__TEXT_END__>
    fffed02c:	911e0c00 	add	x0, x0, #0x783
    fffed030:	94000749 	bl	fffeed54 <tf_log>
    fffed034:	94000d93 	bl	ffff0680 <console_flush>
    fffed038:	94000cc9 	bl	ffff035c <do_panic>
    fffed03c:	b0000040 	adrp	x0, ffff6000 <ext_clocks+0x18>
    fffed040:	b9476813 	ldr	w19, [x0, #1896]
    fffed044:	2a1303e0 	mov	w0, w19
    fffed048:	97fff566 	bl	fffea5e0 <bl31_plat_get_next_image_ep_info>
    fffed04c:	aa0003f4 	mov	x20, x0
    fffed050:	94000740 	bl	fffeed50 <print_entry_point_info>
    fffed054:	aa1403e0 	mov	x0, x20
    fffed058:	94000133 	bl	fffed524 <cm_init_my_context>
    fffed05c:	2a1303e0 	mov	w0, w19
    fffed060:	a94153f3 	ldp	x19, x20, [sp, #16]
    fffed064:	a8c27bfd 	ldp	x29, x30, [sp], #32
    fffed068:	14000161 	b	fffed5ec <cm_prepare_el3_exit>

00000000fffed06c <bl31_main>:
    fffed06c:	a9be7bfd 	stp	x29, x30, [sp, #-32]!
    fffed070:	b0000021 	adrp	x1, ffff2000 <__TEXT_END__>
    fffed074:	91007821 	add	x1, x1, #0x1e
    fffed078:	910003fd 	mov	x29, sp
    fffed07c:	f9000bf3 	str	x19, [sp, #16]
    fffed080:	b0000033 	adrp	x19, ffff2000 <__TEXT_END__>
    fffed084:	911de273 	add	x19, x19, #0x778
    fffed088:	aa1303e0 	mov	x0, x19
    fffed08c:	94000732 	bl	fffeed54 <tf_log>
    fffed090:	aa1303e0 	mov	x0, x19
    fffed094:	b0000021 	adrp	x1, ffff2000 <__TEXT_END__>
    fffed098:	91000021 	add	x1, x1, #0x0
    fffed09c:	9400072e 	bl	fffeed54 <tf_log>
    fffed0a0:	97fff585 	bl	fffea6b4 <bl31_platform_setup>
    fffed0a4:	940000d5 	bl	fffed3f8 <cm_init>
    fffed0a8:	94000037 	bl	fffed184 <runtime_svc_init>
    fffed0ac:	d0000040 	adrp	x0, ffff7000 <__RELA_END__+0x880>
    fffed0b0:	f944b400 	ldr	x0, [x0, #2408]
    fffed0b4:	b4000040 	cbz	x0, fffed0bc <bl31_main+0x50>
    fffed0b8:	d63f0000 	blr	x0
    fffed0bc:	97ffffd4 	bl	fffed00c <bl31_prepare_next_image_entry>
    fffed0c0:	94000d70 	bl	ffff0680 <console_flush>
    fffed0c4:	f9400bf3 	ldr	x19, [sp, #16]
    fffed0c8:	a8c27bfd 	ldp	x29, x30, [sp], #32
    fffed0cc:	17fff57f 	b	fffea6c8 <bl31_plat_runtime_setup>

00000000fffed0d0 <get_scr_el3_from_routing_model>:
    fffed0d0:	d0000041 	adrp	x1, ffff7000 <__RELA_END__+0x880>
    fffed0d4:	9125c022 	add	x2, x1, #0x970
    fffed0d8:	2a0003e1 	mov	w1, w0
    fffed0dc:	8b010840 	add	x0, x2, x1, lsl #2
    fffed0e0:	8b010843 	add	x3, x2, x1, lsl #2
    fffed0e4:	8b010841 	add	x1, x2, x1, lsl #2
    fffed0e8:	b9403c00 	ldr	w0, [x0, #60]
    fffed0ec:	b9400c63 	ldr	w3, [x3, #12]
    fffed0f0:	b9402421 	ldr	w1, [x1, #36]
    fffed0f4:	2a030000 	orr	w0, w0, w3
    fffed0f8:	2a010000 	orr	w0, w0, w1
    fffed0fc:	d65f03c0 	ret

00000000fffed100 <get_interrupt_type_handler>:
    fffed100:	7100081f 	cmp	w0, #0x2
    fffed104:	54000108 	b.hi	fffed124 <get_interrupt_type_handler+0x24>  // b.pmore
    fffed108:	2a0003e0 	mov	w0, w0
    fffed10c:	d2800301 	mov	x1, #0x18                  	// #24
    fffed110:	9b017c00 	mul	x0, x0, x1
    fffed114:	d0000041 	adrp	x1, ffff7000 <__RELA_END__+0x880>
    fffed118:	9125c021 	add	x1, x1, #0x970
    fffed11c:	f8606820 	ldr	x0, [x1, x0]
    fffed120:	d65f03c0 	ret
    fffed124:	d2800000 	mov	x0, #0x0                   	// #0
    fffed128:	17fffffe 	b	fffed120 <get_interrupt_type_handler+0x20>

00000000fffed12c <cm_get_context>:
    fffed12c:	d53ed041 	mrs	x1, tpidr_el3
    fffed130:	f8605820 	ldr	x0, [x1, w0, uxtw #3]
    fffed134:	d65f03c0 	ret

00000000fffed138 <cm_get_context_by_index>:
    fffed138:	a9be7bfd 	stp	x29, x30, [sp, #-32]!
    fffed13c:	910003fd 	mov	x29, sp
    fffed140:	f9000bf3 	str	x19, [sp, #16]
    fffed144:	2a0103f3 	mov	w19, w1
    fffed148:	94000bc4 	bl	ffff0058 <_cpu_data_by_index>
    fffed14c:	f8735800 	ldr	x0, [x0, w19, uxtw #3]
    fffed150:	f9400bf3 	ldr	x19, [sp, #16]
    fffed154:	a8c27bfd 	ldp	x29, x30, [sp], #32
    fffed158:	d65f03c0 	ret

00000000fffed15c <cm_set_context_by_index>:
    fffed15c:	a9be7bfd 	stp	x29, x30, [sp, #-32]!
    fffed160:	910003fd 	mov	x29, sp
    fffed164:	a90153f3 	stp	x19, x20, [sp, #16]
    fffed168:	2a0203f3 	mov	w19, w2
    fffed16c:	aa0103f4 	mov	x20, x1
    fffed170:	94000bba 	bl	ffff0058 <_cpu_data_by_index>
    fffed174:	f8335814 	str	x20, [x0, w19, uxtw #3]
    fffed178:	a94153f3 	ldp	x19, x20, [sp, #16]
    fffed17c:	a8c27bfd 	ldp	x29, x30, [sp], #32
    fffed180:	d65f03c0 	ret

00000000fffed184 <runtime_svc_init>:
    fffed184:	a9bb7bfd 	stp	x29, x30, [sp, #-80]!
    fffed188:	910003fd 	mov	x29, sp
    fffed18c:	a90153f3 	stp	x19, x20, [sp, #16]
    fffed190:	b0000033 	adrp	x19, ffff2000 <__TEXT_END__>
    fffed194:	b0000034 	adrp	x20, ffff2000 <__TEXT_END__>
    fffed198:	9138a273 	add	x19, x19, #0xe28
    fffed19c:	913a2294 	add	x20, x20, #0xe88
    fffed1a0:	a9025bf5 	stp	x21, x22, [sp, #32]
    fffed1a4:	a90363f7 	stp	x23, x24, [sp, #48]
    fffed1a8:	cb130294 	sub	x20, x20, x19
    fffed1ac:	f90023f9 	str	x25, [sp, #64]
    fffed1b0:	f1007e9f 	cmp	x20, #0x1f
    fffed1b4:	540001a9 	b.ls	fffed1e8 <runtime_svc_init+0x64>  // b.plast
    fffed1b8:	b0000037 	adrp	x23, ffff2000 <__TEXT_END__>
    fffed1bc:	d345fe96 	lsr	x22, x20, #5
    fffed1c0:	912042f7 	add	x23, x23, #0x810
    fffed1c4:	52800019 	mov	w25, #0x0                   	// #0
    fffed1c8:	f0000055 	adrp	x21, ffff8000 <psci_ns_context+0x640>
    fffed1cc:	9110c2b5 	add	x21, x21, #0x430
    fffed1d0:	d2801002 	mov	x2, #0x80                  	// #128
    fffed1d4:	12800001 	mov	w1, #0xffffffff            	// #-1
    fffed1d8:	aa1503e0 	mov	x0, x21
    fffed1dc:	94000d7a 	bl	ffff07c4 <memset>
    fffed1e0:	eb3902df 	cmp	x22, w25, uxtb
    fffed1e4:	540000e8 	b.hi	fffed200 <runtime_svc_init+0x7c>  // b.pmore
    fffed1e8:	a94153f3 	ldp	x19, x20, [sp, #16]
    fffed1ec:	a9425bf5 	ldp	x21, x22, [sp, #32]
    fffed1f0:	a94363f7 	ldp	x23, x24, [sp, #48]
    fffed1f4:	f94023f9 	ldr	x25, [sp, #64]
    fffed1f8:	a8c57bfd 	ldp	x29, x30, [sp], #80
    fffed1fc:	d65f03c0 	ret
    fffed200:	d37b1f38 	ubfiz	x24, x25, #5, #8
    fffed204:	ab130314 	adds	x20, x24, x19
    fffed208:	540001c0 	b.eq	fffed240 <runtime_svc_init+0xbc>  // b.none
    fffed20c:	39400680 	ldrb	w0, [x20, #1]
    fffed210:	38736b01 	ldrb	w1, [x24, x19]
    fffed214:	6b00003f 	cmp	w1, w0
    fffed218:	54000148 	b.hi	fffed240 <runtime_svc_init+0xbc>  // b.pmore
    fffed21c:	7100fc1f 	cmp	w0, #0x3f
    fffed220:	54000108 	b.hi	fffed240 <runtime_svc_init+0xbc>  // b.pmore
    fffed224:	39400a80 	ldrb	w0, [x20, #2]
    fffed228:	7100041f 	cmp	w0, #0x1
    fffed22c:	540000a8 	b.hi	fffed240 <runtime_svc_init+0xbc>  // b.pmore
    fffed230:	f9400a80 	ldr	x0, [x20, #16]
    fffed234:	b5000120 	cbnz	x0, fffed258 <runtime_svc_init+0xd4>
    fffed238:	f9400e80 	ldr	x0, [x20, #24]
    fffed23c:	b50001e0 	cbnz	x0, fffed278 <runtime_svc_init+0xf4>
    fffed240:	aa1403e1 	mov	x1, x20
    fffed244:	b0000020 	adrp	x0, ffff2000 <__TEXT_END__>
    fffed248:	911fa000 	add	x0, x0, #0x7e8
    fffed24c:	940006c2 	bl	fffeed54 <tf_log>
    fffed250:	94000d0c 	bl	ffff0680 <console_flush>
    fffed254:	94000c42 	bl	ffff035c <do_panic>
    fffed258:	d63f0000 	blr	x0
    fffed25c:	340000e0 	cbz	w0, fffed278 <runtime_svc_init+0xf4>
    fffed260:	f9400681 	ldr	x1, [x20, #8]
    fffed264:	aa1703e0 	mov	x0, x23
    fffed268:	940006bb 	bl	fffeed54 <tf_log>
    fffed26c:	11000739 	add	w25, w25, #0x1
    fffed270:	12001f39 	and	w25, w25, #0xff
    fffed274:	17ffffdb 	b	fffed1e0 <runtime_svc_init+0x5c>
    fffed278:	39400a80 	ldrb	w0, [x20, #2]
    fffed27c:	38736b02 	ldrb	w2, [x24, x19]
    fffed280:	531a0001 	ubfiz	w1, w0, #6, #1
    fffed284:	12001442 	and	w2, w2, #0x3f
    fffed288:	39400680 	ldrb	w0, [x20, #1]
    fffed28c:	2a010042 	orr	w2, w2, w1
    fffed290:	12001c44 	and	w4, w2, #0xff
    fffed294:	8b150042 	add	x2, x2, x21
    fffed298:	12001400 	and	w0, w0, #0x3f
    fffed29c:	2a010000 	orr	w0, w0, w1
    fffed2a0:	d2800001 	mov	x1, #0x0                   	// #0
    fffed2a4:	0b010083 	add	w3, w4, w1
    fffed2a8:	6b23001f 	cmp	w0, w3, uxtb
    fffed2ac:	54fffe03 	b.cc	fffed26c <runtime_svc_init+0xe8>  // b.lo, b.ul, b.last
    fffed2b0:	38216859 	strb	w25, [x2, x1]
    fffed2b4:	91000421 	add	x1, x1, #0x1
    fffed2b8:	17fffffb 	b	fffed2a4 <runtime_svc_init+0x120>

00000000fffed2bc <arm_arch_svc_smc_handler>:
    fffed2bc:	320107e2 	mov	w2, #0x80000001            	// #-2147483647
    fffed2c0:	6b02001f 	cmp	w0, w2
    fffed2c4:	54000160 	b.eq	fffed2f0 <arm_arch_svc_smc_handler+0x34>  // b.none
    fffed2c8:	32013fe1 	mov	w1, #0x80007fff            	// #-2147450881
    fffed2cc:	6b01001f 	cmp	w0, w1
    fffed2d0:	540000c0 	b.eq	fffed2e8 <arm_arch_svc_smc_handler+0x2c>  // b.none
    fffed2d4:	52b00001 	mov	w1, #0x80000000            	// #-2147483648
    fffed2d8:	6b01001f 	cmp	w0, w1
    fffed2dc:	320083e0 	mov	w0, #0x10001               	// #65537
    fffed2e0:	da9f0000 	csinv	x0, x0, xzr, eq  // eq = none
    fffed2e4:	f90000c0 	str	x0, [x6]
    fffed2e8:	aa0603e0 	mov	x0, x6
    fffed2ec:	d65f03c0 	ret
    fffed2f0:	d2b00000 	mov	x0, #0x80000000            	// #2147483648
    fffed2f4:	eb00003f 	cmp	x1, x0
    fffed2f8:	540000e3 	b.cc	fffed314 <arm_arch_svc_smc_handler+0x58>  // b.lo, b.ul, b.last
    fffed2fc:	320107e0 	mov	w0, #0x80000001            	// #-2147483647
    fffed300:	eb00003f 	cmp	x1, x0
    fffed304:	540000c9 	b.ls	fffed31c <arm_arch_svc_smc_handler+0x60>  // b.plast
    fffed308:	32013fe0 	mov	w0, #0x80007fff            	// #-2147450881
    fffed30c:	eb00003f 	cmp	x1, x0
    fffed310:	540000c0 	b.eq	fffed328 <arm_arch_svc_smc_handler+0x6c>  // b.none
    fffed314:	92800001 	mov	x1, #0xffffffffffffffff    	// #-1
    fffed318:	14000002 	b	fffed320 <arm_arch_svc_smc_handler+0x64>
    fffed31c:	d2800001 	mov	x1, #0x0                   	// #0
    fffed320:	f90000c1 	str	x1, [x6]
    fffed324:	17fffff1 	b	fffed2e8 <arm_arch_svc_smc_handler+0x2c>
    fffed328:	92800021 	mov	x1, #0xfffffffffffffffe    	// #-2
    fffed32c:	17fffffd 	b	fffed320 <arm_arch_svc_smc_handler+0x64>

00000000fffed330 <std_svc_setup>:
    fffed330:	a9bf7bfd 	stp	x29, x30, [sp, #-16]!
    fffed334:	529ffc00 	mov	w0, #0xffe0                	// #65504
    fffed338:	910003fd 	mov	x29, sp
    fffed33c:	97ffff31 	bl	fffed000 <get_arm_std_svc_args>
    fffed340:	940004f3 	bl	fffee70c <psci_setup>
    fffed344:	7100001f 	cmp	w0, #0x0
    fffed348:	1a9f07e0 	cset	w0, ne  // ne = any
    fffed34c:	a8c17bfd 	ldp	x29, x30, [sp], #16
    fffed350:	d65f03c0 	ret

00000000fffed354 <std_svc_smc_handler>:
    fffed354:	a9be7bfd 	stp	x29, x30, [sp, #-32]!
    fffed358:	721b281f 	tst	w0, #0xffe0
    fffed35c:	910003fd 	mov	x29, sp
    fffed360:	f9000bf3 	str	x19, [sp, #16]
    fffed364:	aa0603f3 	mov	x19, x6
    fffed368:	540000e1 	b.ne	fffed384 <std_svc_smc_handler+0x30>  // b.any
    fffed36c:	9400048c 	bl	fffee59c <psci_smc_handler>
    fffed370:	f9000260 	str	x0, [x19]
    fffed374:	aa1303e0 	mov	x0, x19
    fffed378:	f9400bf3 	ldr	x19, [sp, #16]
    fffed37c:	a8c27bfd 	ldp	x29, x30, [sp], #32
    fffed380:	d65f03c0 	ret
    fffed384:	2a0003e8 	mov	w8, w0
    fffed388:	529fe020 	mov	w0, #0xff01                	// #65281
    fffed38c:	72b08000 	movk	w0, #0x8400, lsl #16
    fffed390:	6b00011f 	cmp	w8, w0
    fffed394:	54000140 	b.eq	fffed3bc <std_svc_smc_handler+0x68>  // b.none
    fffed398:	11000800 	add	w0, w0, #0x2
    fffed39c:	6b00011f 	cmp	w8, w0
    fffed3a0:	54000260 	b.eq	fffed3ec <std_svc_smc_handler+0x98>  // b.none
    fffed3a4:	529fe000 	mov	w0, #0xff00                	// #65280
    fffed3a8:	72b08000 	movk	w0, #0x8400, lsl #16
    fffed3ac:	6b00011f 	cmp	w8, w0
    fffed3b0:	d2800240 	mov	x0, #0x12                  	// #18
    fffed3b4:	da9f0000 	csinv	x0, x0, xzr, eq  // eq = none
    fffed3b8:	17ffffee 	b	fffed370 <std_svc_smc_handler+0x1c>
    fffed3bc:	d2882ac0 	mov	x0, #0x4156                	// #16726
    fffed3c0:	f2bc5ec0 	movk	x0, #0xe2f6, lsl #16
    fffed3c4:	f9000cc0 	str	x0, [x6, #24]
    fffed3c8:	d285b5c0 	mov	x0, #0x2dae                	// #11694
    fffed3cc:	f2bf7800 	movk	x0, #0xfbc0, lsl #16
    fffed3d0:	f90008c0 	str	x0, [x6, #16]
    fffed3d4:	d29f0c60 	mov	x0, #0xf863                	// #63587
    fffed3d8:	f2a8fd00 	movk	x0, #0x47e8, lsl #16
    fffed3dc:	f90004c0 	str	x0, [x6, #8]
    fffed3e0:	d2920b60 	mov	x0, #0x905b                	// #36955
    fffed3e4:	f2a211a0 	movk	x0, #0x108d, lsl #16
    fffed3e8:	17ffffe2 	b	fffed370 <std_svc_smc_handler+0x1c>
    fffed3ec:	d2800020 	mov	x0, #0x1                   	// #1
    fffed3f0:	a90000df 	stp	xzr, x0, [x6]
    fffed3f4:	17ffffe0 	b	fffed374 <std_svc_smc_handler+0x20>

00000000fffed3f8 <cm_init>:
    fffed3f8:	d65f03c0 	ret

00000000fffed3fc <cm_setup_context>:
    fffed3fc:	a9bd7bfd 	stp	x29, x30, [sp, #-48]!
    fffed400:	910003fd 	mov	x29, sp
    fffed404:	a9025bf5 	stp	x21, x22, [sp, #32]
    fffed408:	aa0003f5 	mov	x21, x0
    fffed40c:	b9400436 	ldr	w22, [x1, #4]
    fffed410:	a90153f3 	stp	x19, x20, [sp, #16]
    fffed414:	aa0103f4 	mov	x20, x1
    fffed418:	120002d6 	and	w22, w22, #0x1
    fffed41c:	d2804601 	mov	x1, #0x230                 	// #560
    fffed420:	94000c4d 	bl	ffff0554 <zeromem>
    fffed424:	d53e1101 	mrs	x1, scr_el3
    fffed428:	1281a0e0 	mov	w0, #0xfffff2f8            	// #-3336
    fffed42c:	0a010000 	and	w0, w0, w1
    fffed430:	34000056 	cbz	w22, fffed438 <cm_setup_context+0x3c>
    fffed434:	32000000 	orr	w0, w0, #0x1
    fffed438:	b9401281 	ldr	w1, [x20, #16]
    fffed43c:	37200041 	tbnz	w1, #4, fffed444 <cm_setup_context+0x48>
    fffed440:	32160000 	orr	w0, w0, #0x400
    fffed444:	b9400681 	ldr	w1, [x20, #4]
    fffed448:	36100041 	tbz	w1, #2, fffed450 <cm_setup_context+0x54>
    fffed44c:	32150000 	orr	w0, w0, #0x800
    fffed450:	121c7813 	and	w19, w0, #0xfffffff7
    fffed454:	2a1603e0 	mov	w0, w22
    fffed458:	97ffff1e 	bl	fffed0d0 <get_scr_el3_from_routing_model>
    fffed45c:	2a000260 	orr	w0, w19, w0
    fffed460:	b9401282 	ldr	w2, [x20, #16]
    fffed464:	d3441044 	ubfx	x4, x2, #4, #1
    fffed468:	35000424 	cbnz	w4, fffed4ec <cm_setup_context+0xf0>
    fffed46c:	d3420c41 	ubfx	x1, x2, #2, #2
    fffed470:	7100083f 	cmp	w1, #0x2
    fffed474:	54000041 	b.ne	fffed47c <cm_setup_context+0x80>  // b.any
    fffed478:	32180000 	orr	w0, w0, #0x100
    fffed47c:	b9400681 	ldr	w1, [x20, #4]
    fffed480:	52810003 	mov	w3, #0x800                 	// #2048
    fffed484:	52810705 	mov	w5, #0x838                 	// #2104
    fffed488:	7100009f 	cmp	w4, #0x0
    fffed48c:	72a018a5 	movk	w5, #0xc5, lsl #16
    fffed490:	72a61a03 	movk	w3, #0x30d0, lsl #16
    fffed494:	53081c21 	lsl	w1, w1, #24
    fffed498:	12070021 	and	w1, w1, #0x2000000
    fffed49c:	2a030023 	orr	w3, w1, w3
    fffed4a0:	2a050021 	orr	w1, w1, w5
    fffed4a4:	1a831021 	csel	w1, w1, w3, ne  // ne = any
    fffed4a8:	f900a2a1 	str	x1, [x21, #320]
    fffed4ac:	d5381021 	mrs	x1, actlr_el1
    fffed4b0:	f900a6a1 	str	x1, [x21, #328]
    fffed4b4:	35000076 	cbnz	w22, fffed4c0 <cm_setup_context+0xc4>
    fffed4b8:	d2800c01 	mov	x1, #0x60                  	// #96
    fffed4bc:	f900f2a1 	str	x1, [x21, #480]
    fffed4c0:	f90082a0 	str	x0, [x21, #256]
    fffed4c4:	2a0203e2 	mov	w2, w2
    fffed4c8:	f9400680 	ldr	x0, [x20, #8]
    fffed4cc:	91006281 	add	x1, x20, #0x18
    fffed4d0:	a94153f3 	ldp	x19, x20, [sp, #16]
    fffed4d4:	a91182a2 	stp	x2, x0, [x21, #280]
    fffed4d8:	aa1503e0 	mov	x0, x21
    fffed4dc:	d2800802 	mov	x2, #0x40                  	// #64
    fffed4e0:	a9425bf5 	ldp	x21, x22, [sp, #32]
    fffed4e4:	a8c37bfd 	ldp	x29, x30, [sp], #48
    fffed4e8:	14000c9d 	b	ffff075c <memcpy>
    fffed4ec:	12000c41 	and	w1, w2, #0xf
    fffed4f0:	7100283f 	cmp	w1, #0xa
    fffed4f4:	17ffffe0 	b	fffed474 <cm_setup_context+0x78>

00000000fffed4f8 <cm_init_context_by_index>:
    fffed4f8:	a9be7bfd 	stp	x29, x30, [sp, #-32]!
    fffed4fc:	910003fd 	mov	x29, sp
    fffed500:	f9000bf3 	str	x19, [sp, #16]
    fffed504:	aa0103f3 	mov	x19, x1
    fffed508:	b9400421 	ldr	w1, [x1, #4]
    fffed50c:	12000021 	and	w1, w1, #0x1
    fffed510:	97ffff0a 	bl	fffed138 <cm_get_context_by_index>
    fffed514:	aa1303e1 	mov	x1, x19
    fffed518:	f9400bf3 	ldr	x19, [sp, #16]
    fffed51c:	a8c27bfd 	ldp	x29, x30, [sp], #32
    fffed520:	17ffffb7 	b	fffed3fc <cm_setup_context>

00000000fffed524 <cm_init_my_context>:
    fffed524:	a9be7bfd 	stp	x29, x30, [sp, #-32]!
    fffed528:	910003fd 	mov	x29, sp
    fffed52c:	f9000bf3 	str	x19, [sp, #16]
    fffed530:	aa0003f3 	mov	x19, x0
    fffed534:	b9400400 	ldr	w0, [x0, #4]
    fffed538:	12000000 	and	w0, w0, #0x1
    fffed53c:	97fffefc 	bl	fffed12c <cm_get_context>
    fffed540:	aa1303e1 	mov	x1, x19
    fffed544:	f9400bf3 	ldr	x19, [sp, #16]
    fffed548:	a8c27bfd 	ldp	x29, x30, [sp], #32
    fffed54c:	17ffffac 	b	fffed3fc <cm_setup_context>

00000000fffed550 <cm_el1_sysregs_context_restore>:
    fffed550:	a9be7bfd 	stp	x29, x30, [sp, #-32]!
    fffed554:	910003fd 	mov	x29, sp
    fffed558:	a90153f3 	stp	x19, x20, [sp, #16]
    fffed55c:	2a0003f3 	mov	w19, w0
    fffed560:	97fffef3 	bl	fffed12c <cm_get_context>
    fffed564:	9104c000 	add	x0, x0, #0x130
    fffed568:	94000b0e 	bl	ffff01a0 <el1_sysregs_context_restore>
    fffed56c:	34000273 	cbz	w19, fffed5b8 <cm_el1_sysregs_context_restore+0x68>
    fffed570:	b0000033 	adrp	x19, ffff2000 <__TEXT_END__>
    fffed574:	b0000034 	adrp	x20, ffff2000 <__TEXT_END__>
    fffed578:	913ca273 	add	x19, x19, #0xf28
    fffed57c:	913ca294 	add	x20, x20, #0xf28
    fffed580:	eb14027f 	cmp	x19, x20
    fffed584:	54000142 	b.cs	fffed5ac <cm_el1_sysregs_context_restore+0x5c>  // b.hs, b.nlast
    fffed588:	f8408661 	ldr	x1, [x19], #8
    fffed58c:	d2800000 	mov	x0, #0x0                   	// #0
    fffed590:	d63f0020 	blr	x1
    fffed594:	17fffffb 	b	fffed580 <cm_el1_sysregs_context_restore+0x30>
    fffed598:	f8408661 	ldr	x1, [x19], #8
    fffed59c:	d2800000 	mov	x0, #0x0                   	// #0
    fffed5a0:	d63f0020 	blr	x1
    fffed5a4:	eb14027f 	cmp	x19, x20
    fffed5a8:	54ffff83 	b.cc	fffed598 <cm_el1_sysregs_context_restore+0x48>  // b.lo, b.ul, b.last
    fffed5ac:	a94153f3 	ldp	x19, x20, [sp, #16]
    fffed5b0:	a8c27bfd 	ldp	x29, x30, [sp], #32
    fffed5b4:	d65f03c0 	ret
    fffed5b8:	b0000033 	adrp	x19, ffff2000 <__TEXT_END__>
    fffed5bc:	b0000034 	adrp	x20, ffff2000 <__TEXT_END__>
    fffed5c0:	913c8273 	add	x19, x19, #0xf20
    fffed5c4:	913ca294 	add	x20, x20, #0xf28
    fffed5c8:	17fffff7 	b	fffed5a4 <cm_el1_sysregs_context_restore+0x54>

00000000fffed5cc <cm_set_next_eret_context>:
    fffed5cc:	a9bf7bfd 	stp	x29, x30, [sp, #-16]!
    fffed5d0:	910003fd 	mov	x29, sp
    fffed5d4:	97fffed6 	bl	fffed12c <cm_get_context>
    fffed5d8:	d50041bf 	msr	spsel, #0x1
    fffed5dc:	9100001f 	mov	sp, x0
    fffed5e0:	d50040bf 	msr	spsel, #0x0
    fffed5e4:	a8c17bfd 	ldp	x29, x30, [sp], #16
    fffed5e8:	d65f03c0 	ret

00000000fffed5ec <cm_prepare_el3_exit>:
    fffed5ec:	a9be7bfd 	stp	x29, x30, [sp, #-32]!
    fffed5f0:	910003fd 	mov	x29, sp
    fffed5f4:	f9000bf3 	str	x19, [sp, #16]
    fffed5f8:	2a0003f3 	mov	w19, w0
    fffed5fc:	97fffecc 	bl	fffed12c <cm_get_context>
    fffed600:	7100067f 	cmp	w19, #0x1
    fffed604:	54000481 	b.ne	fffed694 <cm_prepare_el3_exit+0xa8>  // b.any
    fffed608:	f9408001 	ldr	x1, [x0, #256]
    fffed60c:	36400121 	tbz	w1, #8, fffed630 <cm_prepare_el3_exit+0x44>
    fffed610:	f940a000 	ldr	x0, [x0, #320]
    fffed614:	52810601 	mov	w1, #0x830                 	// #2096
    fffed618:	72a618a1 	movk	w1, #0x30c5, lsl #16
    fffed61c:	12070000 	and	w0, w0, #0x2000000
    fffed620:	2a010000 	orr	w0, w0, w1
    fffed624:	d51c1000 	msr	sctlr_el2, x0
    fffed628:	52800000 	mov	w0, #0x0                   	// #0
    fffed62c:	14000019 	b	fffed690 <cm_prepare_el3_exit+0xa4>
    fffed630:	d5380400 	mrs	x0, id_aa64pfr0_el1
    fffed634:	f2780c1f 	tst	x0, #0xf00
    fffed638:	54ffff80 	b.eq	fffed628 <cm_prepare_el3_exit+0x3c>  // b.none
    fffed63c:	d34a2820 	ubfx	x0, x1, #10, #1
    fffed640:	d3618000 	lsl	x0, x0, #31
    fffed644:	b2580400 	orr	x0, x0, #0x30000000000
    fffed648:	d51c1100 	msr	hcr_el2, x0
    fffed64c:	d2867fe0 	mov	x0, #0x33ff                	// #13311
    fffed650:	d51c1140 	msr	cptr_el2, x0
    fffed654:	d2800060 	mov	x0, #0x3                   	// #3
    fffed658:	d51ce100 	msr	cnthctl_el2, x0
    fffed65c:	d2800000 	mov	x0, #0x0                   	// #0
    fffed660:	d51ce060 	msr	cntvoff_el2, x0
    fffed664:	d5380001 	mrs	x1, midr_el1
    fffed668:	d51c0001 	msr	vpidr_el2, x1
    fffed66c:	d53800a1 	mrs	x1, mpidr_el1
    fffed670:	d51c00a1 	msr	vmpidr_el2, x1
    fffed674:	d51c2100 	msr	vttbr_el2, x0
    fffed678:	d53b9c01 	mrs	x1, pmcr_el0
    fffed67c:	d34b3c21 	ubfx	x1, x1, #11, #5
    fffed680:	d51c1121 	msr	mdcr_el2, x1
    fffed684:	d51c1160 	msr	hstr_el2, x0
    fffed688:	d51ce220 	msr	cnthp_ctl_el2, x0
    fffed68c:	2a1303e0 	mov	w0, w19
    fffed690:	9400059f 	bl	fffeed0c <spe_enable>
    fffed694:	2a1303e0 	mov	w0, w19
    fffed698:	97ffffae 	bl	fffed550 <cm_el1_sysregs_context_restore>
    fffed69c:	2a1303e0 	mov	w0, w19
    fffed6a0:	f9400bf3 	ldr	x19, [sp, #16]
    fffed6a4:	a8c27bfd 	ldp	x29, x30, [sp], #32
    fffed6a8:	17ffffc9 	b	fffed5cc <cm_set_next_eret_context>

00000000fffed6ac <psci_do_cpu_off>:
    fffed6ac:	a9bc7bfd 	stp	x29, x30, [sp, #-64]!
    fffed6b0:	910003fd 	mov	x29, sp
    fffed6b4:	a90153f3 	stp	x19, x20, [sp, #16]
    fffed6b8:	2a0003f4 	mov	w20, w0
    fffed6bc:	f90013f5 	str	x21, [sp, #32]
    fffed6c0:	94000c03 	bl	ffff06cc <plat_my_core_pos>
    fffed6c4:	2a0003f5 	mov	w21, w0
    fffed6c8:	52804040 	mov	w0, #0x202                 	// #514
    fffed6cc:	2a1503e1 	mov	w1, w21
    fffed6d0:	790073a0 	strh	w0, [x29, #56]
    fffed6d4:	2a1403e0 	mov	w0, w20
    fffed6d8:	94000213 	bl	fffedf24 <psci_acquire_pwr_domain_locks>
    fffed6dc:	f0000040 	adrp	x0, ffff8000 <psci_ns_context+0x640>
    fffed6e0:	f9430400 	ldr	x0, [x0, #1544]
    fffed6e4:	b5000460 	cbnz	x0, fffed770 <psci_do_cpu_off+0xc4>
    fffed6e8:	9100e3a1 	add	x1, x29, #0x38
    fffed6ec:	2a1403e0 	mov	w0, w20
    fffed6f0:	940001b8 	bl	fffeddd0 <psci_do_state_coordination>
    fffed6f4:	52800013 	mov	w19, #0x0                   	// #0
    fffed6f8:	9100e3a0 	add	x0, x29, #0x38
    fffed6fc:	940001f6 	bl	fffeded4 <psci_find_max_off_lvl>
    fffed700:	940002bb 	bl	fffee1ec <psci_do_pwrdown_sequence>
    fffed704:	f0000040 	adrp	x0, ffff8000 <psci_ns_context+0x640>
    fffed708:	f9430000 	ldr	x0, [x0, #1536]
    fffed70c:	f9400801 	ldr	x1, [x0, #16]
    fffed710:	9100e3a0 	add	x0, x29, #0x38
    fffed714:	d63f0020 	blr	x1
    fffed718:	2a1503e1 	mov	w1, w21
    fffed71c:	2a1403e0 	mov	w0, w20
    fffed720:	9400021f 	bl	fffedf9c <psci_release_pwr_domain_locks>
    fffed724:	35000373 	cbnz	w19, fffed790 <psci_do_cpu_off+0xe4>
    fffed728:	d53ed040 	mrs	x0, tpidr_el3
    fffed72c:	d2800081 	mov	x1, #0x4                   	// #4
    fffed730:	91006000 	add	x0, x0, #0x18
    fffed734:	94000b15 	bl	ffff0388 <flush_dcache_range>
    fffed738:	d53ed040 	mrs	x0, tpidr_el3
    fffed73c:	52800021 	mov	w1, #0x1                   	// #1
    fffed740:	b9001801 	str	w1, [x0, #24]
    fffed744:	d5033b9f 	dsb	ish
    fffed748:	d53ed040 	mrs	x0, tpidr_el3
    fffed74c:	d2800081 	mov	x1, #0x4                   	// #4
    fffed750:	91006000 	add	x0, x0, #0x18
    fffed754:	94000b29 	bl	ffff03f8 <inv_dcache_range>
    fffed758:	f0000040 	adrp	x0, ffff8000 <psci_ns_context+0x640>
    fffed75c:	f9430000 	ldr	x0, [x0, #1536]
    fffed760:	f9401c01 	ldr	x1, [x0, #56]
    fffed764:	b4000141 	cbz	x1, fffed78c <psci_do_cpu_off+0xe0>
    fffed768:	9100e3a0 	add	x0, x29, #0x38
    fffed76c:	d63f0020 	blr	x1
    fffed770:	f9400401 	ldr	x1, [x0, #8]
    fffed774:	b4fffba1 	cbz	x1, fffed6e8 <psci_do_cpu_off+0x3c>
    fffed778:	d2800000 	mov	x0, #0x0                   	// #0
    fffed77c:	d63f0020 	blr	x1
    fffed780:	2a0003f3 	mov	w19, w0
    fffed784:	34fffb20 	cbz	w0, fffed6e8 <psci_do_cpu_off+0x3c>
    fffed788:	17ffffe4 	b	fffed718 <psci_do_cpu_off+0x6c>
    fffed78c:	94000a82 	bl	ffff0194 <psci_power_down_wfi>
    fffed790:	2a1303e0 	mov	w0, w19
    fffed794:	f94013f5 	ldr	x21, [sp, #32]
    fffed798:	a94153f3 	ldp	x19, x20, [sp, #16]
    fffed79c:	a8c47bfd 	ldp	x29, x30, [sp], #64
    fffed7a0:	d65f03c0 	ret

00000000fffed7a4 <psci_cpu_on_start>:
    fffed7a4:	a9bc7bfd 	stp	x29, x30, [sp, #-64]!
    fffed7a8:	910003fd 	mov	x29, sp
    fffed7ac:	a90153f3 	stp	x19, x20, [sp, #16]
    fffed7b0:	d2800194 	mov	x20, #0xc                   	// #12
    fffed7b4:	a9025bf5 	stp	x21, x22, [sp, #32]
    fffed7b8:	aa0003f5 	mov	x21, x0
    fffed7bc:	f9001bf7 	str	x23, [sp, #48]
    fffed7c0:	aa0103f7 	mov	x23, x1
    fffed7c4:	97fff472 	bl	fffea98c <plat_core_pos_by_mpidr>
    fffed7c8:	2a0003f3 	mov	w19, w0
    fffed7cc:	8b20d294 	add	x20, x20, w0, sxtw #4
    fffed7d0:	f0000040 	adrp	x0, ffff8000 <psci_ns_context+0x640>
    fffed7d4:	91170000 	add	x0, x0, #0x5c0
    fffed7d8:	8b000294 	add	x20, x20, x0
    fffed7dc:	aa1403e0 	mov	x0, x20
    fffed7e0:	94000a54 	bl	ffff0130 <spin_lock>
    fffed7e4:	2a1303e0 	mov	w0, w19
    fffed7e8:	94000a1c 	bl	ffff0058 <_cpu_data_by_index>
